(lp1
(lp2
VCLUBS
p3
aVMusic School
p4
aVCOFFEE
p5
aVHouse
p6
aVMessiah
p7
aVRavenswood Musical Society
p8
aVEvanston Musical
p9
aVMessiah
p10
aVALL NATIONS
p11
aVAuditorium
p12
aVOrgan Fund
p13
aVCHRISTMAS
p14
aVChristmas Play
p15
aVOLD
p16
aVSETTLERS
p17
aVAUTHORS
p18
aVREADINGS
p19
aVOctave Thaneti
p20
aVHouse
p21
aVHoe
p22
aVFATHER
p23
aVHUNTINGTON
p24
aVHoly Cross
p25
aVRECEPTION
p26
aVTO
p27
aVLEAGUE
p28
aVNational Consumers
p29
aVLeague
p30
aVIllinois Consumers
p31
aVLeague
p32
aVFEDERATION
p33
aVFederation
p34
aVForward Movement
p35
aVMcNutt
p36
aVTHE
p37
aVMUSIC
p38
aVMASQUERADE
p39
aVAuditorium
p40
aVSOCIAL
p41
aVFOR
p42
aVDOMESTIC
p43
aVCoffee House
p44
aVFOR
p45
aVAuditorium
p46
aVPLAYGROUND
p47
aVUniversity
p48
aVTHE
p49
aVJUVENILE
p50
aVJuvenile
p51
aVJuvenile
p52
aVHull-House
p53
aVChicago Bureau
p54
aVHull-House
p55
aVSociety
p56
aVKINDERGARTEN
p57
aVTHE
p58
aVChicago Froebel Association
p59
aVHull-House
p60
aVHouse
p61
aVAssociation
p62
aVAssociation
p63
aVBoard
p64
aVAssociation
p65
aVHouse
p66
aVUniversity
p67
aVALUMNAE
p68
aVTHE
p69
aVChicago Froebel Kindergarten Association
p70
aVHull-House
p71
aVNURSE
p72
aVChicago
p73
aVAssociation
p74
aVHull-House
p75
aVRELIEF
p76
aVBUREAU
p77
aVRelief Bureau
p78
aVHull-House
p79
aVChicago Bureau
p80
aVPOST
p81
aVHull-House
p82
aVCOFFEE
p83
aVMedill High School
p84
aVLake High School
p85
aVUnion Streets
p86
aVHull-House
p87
aVHull-House Women
p88
aVClub
p89
aVClub Resolutions
p90
aVHull-House Women
p91
aVHull-House Women
p92
aVVacation
p93
aVParental
p94
aVJuvenile
p95
aVRockford College
p96
aVSanitation
p97
aVRobinson
p98
aVRobinson
p99
aVReading Party
p100
aVConsumers
p101
aVParis Exposition
p102
aVEXCURSIONS
p103
aVHull-House Woman
p104
aVClub
p105
aVMcBride
p106
aVBule Island
p107
aVFreeport
p108
aVCaitips Goodwill
p109
aVVanderlip
p110
aVLakeside
p111
aVJOE
p112
aVShakespeare Club
p113
aVHouse
p114
aVClub
p115
aVUniversity
p116
aVAfrican Republics
p117
aVDewey School
p118
aVChicago University
p119
aVSILVER
p120
aVLecture Hall
p121
aVCOLONY
p122
aVDAPHNE
p123
aVALABAMA
p124
aVDaphne
p125
aVPublic Instruction
p126
aVPassion Play
p127
aVOberammergau
p128
aVState Board
p129
aVBulefeldt
p130
aVClub
p131
aVMen
p132
aVHull-House
p133
aVLabor Museum
p134
aVEthical Society
p135
aVSweat Shop
p136
aVHull-House
p137
aVSmith Gruenberger
p138
aVSweat Shop Eleanor Smith
p139
aVYiddish of Morris Rosenfeld
p140
aVMusic School
p141
aVDas Veilchen
p142
aVCLUB
p143
aVClub
p144
aVAuditorium
p145
aVVacation Schools
p146
aVClub
p147
aVAuditorium
p148
aVSocial Extension Committee
p149
aVIda Benfey
p150
aVFloss
p151
aVClub
p152
aVAuditorium
p153
aVCoffee House
p154
aVLABOR
p155
aVLabor Museum
p156
aVCook County Normal School
p157
aVGymnasium
p158
aVARTS
p159
aVCRAFTS
p160
aVArts
p161
aVPublic Buildings
p162
aVParis Exhibition
p163
aVLakeside Press
p164
aVChicago Press
p165
aVLabor Museum
p166
aVAuditorium
p167
aVTHE
p168
aVJUVENILE
p169
aVJuvenile Court
p170
aVJuvenile
p171
aVHull-House
p172
aVChicago Bureau
p173
aVKINDERGARTEN
p174
aVTHE
p175
aVChicago Froebel Association
p176
aVHull-House
p177
aVHouse
p178
aVAssociation
p179
aVAssociation
p180
aVBoard
p181
aVAssociation
p182
aVHouse
p183
aVUniversity
p184
aVHULL
p185
aVRelief Bureau
p186
aVChicago Bureau
p187
aVPOST
p188
aVHull-House
p189
aVNational Consumers
p190
aVHull-House
p191
aVMississippi Valley
p192
aVMusic School
p193
aVCoffee House
p194
aVLECTURES
p195
aVAND
p196
aVClubs
p197
aVCOFFEE
p198
aVMedill High School
p199
aVLake High School
p200
aVUnion Streets
p201
aVHouse
p202
aVUniversity
p203
aVHull-House
p204
aVBriggs
p205
aVUniversity
p206
aVShakespeare Club
p207
aVSocial Unrest
p208
aVTHE
p209
aVTEACHER
p210
aVRECEPTION
p211
aVTeacher
p212
aVSudermann
p213
aVITALIAN
p214
aVAuditorium
p215
aVCostumes
p216
aVCastle Garden
p217
aVORCHESTA
p218
aVVecchione
p219
aVGREEN
p220
aVMusic School
p221
aVChicago Woman
p222
aVFine Arts Building
p223
aVKeYser
p224
aVJane Club
p225
aVHull-House
p226
aVBevans
p227
aVJane Club
p228
aVMiss Ellen Stone
p229
aVClub
p230
aVMorgan Park
p231
aVMorgan Park Woman
p232
aVDouglass Park
p233
aVSocial Extension Committee
p234
aVPEOPLE
p235
aVFRIENDLY
p236
aVPeople
p237
aVKindergarten
p238
aVAuditorium
p239
aVCourt
p240
aVGreat Men Club
p241
aVRockwell
p242
aVBasket Weavers
p243
aVDearborn
p244
aVAnnual Theatre Party
p245
aVReddington
p246
aVSCHOOL
p247
aVCLUB
p248
aVIntention
p249
aVSchool Boys
p250
aVLABOR
p251
aVINdustrial Progress Committee
p252
aVChicacgo Woman
p253
aVHull-House Labor Museum
p254
aVARTS
p255
aVCRAFTS
p256
aVArts
p257
aVPLAYGROUND
p258
aVWITH
p259
aVJUVENILE
p260
aVJuvenile Court Law
p261
aVVisitng Nurses
p262
aVChicago Bureau
p263
aVCOFFEE
p264
aVUnion
p265
aVCoffee House
p266
aVCoffee House
p267
aVBureau
p268
aVHarvard
p269
aVChicago Ethical Society
p270
aVIndustrial Commission
p271
aVDaphne
p272
aVArkansas
p273
aVItalians
p274
aVORCHESTRA
p275
aVSan Carlo
p276
aVItalians
p277
aVChicago
p278
aVITALIAN
p279
aVAuditorium
p280
aVMessers Felix Vecchione
p281
aVCaterina Scandivio
p282
aVOLD
p283
aVSETTLERS
p284
aVPARTY
p285
aVOld Settlers
p286
aVHull-House
p287
aVCoffee House
p288
aVSTATE
p289
aVFEDERATION OF
p290
aVExecutive Board
p291
aVState Federation
p292
aVHull-House
p293
aVHull-House Woman
p294
aVClub
p295
aVState Federation
p296
aVBEN
p297
aVTILLETT
p298
aVChicago Federation
p299
aVAudit
p300
aVHull-House
p301
aVChicago Federation
p302
aVHull-House
p303
aVLABOR
p304
aVAmerican Federation
p305
aVChicago Woman
p306
aVClub
p307
aVCarolinas
p308
aVGOODS
p309
aVNational Consumers
p310
aVUnion Label League
p311
aVConsumers
p312
aVConsumers
p313
aVNEW
p314
aVBUILDINGS
p315
aVHull-House
p316
aVClub
p317
aVJane Club
p318
aVJane Club
p319
aVClub Building
p320
aVHull-House
p321
aVQualifications
p322
aVGood
p323
aVLinen Chest Committee
p324
aVSocial Extension Committee
p325
aVLecture Hall
p326
aVCLUB
p327
aVContentment
p328
aVTHE
p329
aVPEOPLE
p330
aVFRIENDLY
p331
aVPeople
p332
aVKindergarten
p333
aVAuditorium
p334
aVCLUB
p335
aVHouse
p336
aVAmerican History Group
p337
aVJunior Dramatic Club
p338
aVBOYS
p339
aVHouse Music School
p340
aVAuditorium
p341
aVHouse
p342
aVHouse
p343
aVSCHOOL
p344
aVBOYS
p345
aVCLUB
p346
aVMAKERS
p347
aVUNION No
p348
aVLABOR
p349
aVField Columbian Museum
p350
aVHull-House Labor Museum
p351
aVHull-House Labor Museum
p352
aVNavajo
p353
aVLabor Museum
p354
aVHull-House
p355
aVSt. Louis Exposition
p356
aVARTS
p357
aVCRAFTS
p358
aVArts
p359
aVChicago Bureau
p360
aVWITH
p361
aVJUVENILE
p362
aVJuvenile Court Law
p363
aVMEETING OF
p364
aVCONSUMERS
p365
aVLEAGUE OF
p366
aVConsumers
p367
aVCoffee Horse
p368
aVLeague
p369
aVCHRISTMAS
p370
aVPipes And
p371
aVRockford College
p372
aVSettlement Conference
p373
aVChautauqua
p374
aVENGLISH
p375
aVLECTURERS
p376
aVGreat Mujik
p377
aVDemocracy
p378
aVMILK
p379
aVMemorial Institute
p380
aVInfectious Diseases
p381
aVOLD
p382
aVSETTLERS
p383
aVPARTY
p384
aVHull-House
p385
aVChicagoan
p386
aVFoster
p387
aVHull-House Woman
p388
aVClub
p389
aVGREEK
p390
aVPLAY Miss Mabel
p391
aVReturn
p392
aVORCHESTRA
p393
aVOrchestra Association
p394
aVSan Carlo
p395
aVAuditorium
p396
aVMUSIC
p397
aVHouse
p398
aVGyles
p399
aVHull-House
p400
aVJane Club
p401
aVUniversity
p402
aVLeague
p403
aVCLUB
p404
aVClub
p405
aVAuditorium
p406
aVClub
p407
aVSocial Extension Committee
p408
aVState Federation
p409
aVCook County League
p410
aVJuvenile Court
p411
aVVacation School Committees
p412
aVHouse Committee
p413
aVVisiting Committee
p414
aVReciprocity
p415
aVCLUB
p416
aVHouse
p417
aVUniversity
p418
aVLeMoyne
p419
aVCommunity
p420
aVPEOPLE
p421
aVFRIENDLY
p422
aVPeople
p423
aVKindergarten
p424
aVAuditorium
p425
aVAuditorium
p426
aVCoffee House
p427
aVJUNIOR
p428
aVDRAMATIC
p429
aVTHE
p430
aVLament
p431
aVLABOR
p432
aVLabor Museum
p433
aVField Museum
p434
aVHull-House Museum
p435
aVARTS
p436
aVCRAFTS
p437
aVArts
p438
aVRowley
p439
aVAncoats
p440
aVPLAYGROUND
p441
aVJUVENILE
p442
aVPOST
p443
aVHull-House
p444
aVCOFFEE
p445
aVChicago Ethical Society
p446
aVAlumni Association
p447
aVSmith
p448
aVChicago Association
p449
aVRockford College
p450
aVMILK
p451
aVChicago Tribune
p452
aVroPer
p453
aVITALIAN
p454
aVNINETEENTH
p455
aVWARD
p456
aVHull-House
p457
aVMunicipal Ownership
p458
aVSUMMER
p459
aVUniversity
p460
aVUniversity
p461
aVHull-House
p462
aVSettlement
p463
aVUniversity
p464
aVSUMMER
p465
aVSCHOOL
p466
aVHouse
p467
aVRockford College
p468
aVChauaqua
p469
aVTraverse Bay
p470
aVSUMMER
p471
aVVail
p472
aVPupils
p473
aVSUMMER
p474
aVOUTINGS
p475
aVBOYS
p476
aVCAMP
p477
aVLABOR
p478
aVHull-House
p479
aVIllinois Child Labor Bill
p480
aVCompulsory Education Law
p481
aVState Factory
p482
aVCompulsory Education Department
p483
aVFederation
p484
aVMlilwaukee
p485
aVProbation
p486
aVInstitutional Church
p487
aVProbation
p488
aVPublishers
p489
aVCity Council
p490
aVFOR
p491
aVSCHOOL
p492
aVHull-House
p493
aVScammon
p494
aVGoodrich
p495
aVHull-House
p496
aVKisbenev
p497
aVArmenians
p498
aVGREEK PARTY
p499
aVAjax
p500
aVBarrows
p501
aVAmerican Archaeological Society
p502
aVAJAX OF
p503
aVAjax
p504
aVAjax
p505
aVAjax
p506
aVAjax
p507
aVAjax
p508
aVAjax
p509
aVReturn
p510
aVHull-House
p511
aVReturn
p512
aVHull-House
p513
aVAjax
p514
aVHull-House
p515
aVTHE DRAMA
p516
aVAPARTMENTS
p517
aVJane Club
p518
aVMen
p519
aVClub
p520
aVKindergarten Room
p521
aVDANTE
p522
aVSCHOOL
p523
aVDante School
p524
aVForquer
p525
aVNEW
p526
aVDRAMATIC
p527
aVWashington
p528
aVAriedne Club
p529
aVHAMLET
p530
aVShakespeare Club
p531
aVAUDITORIUM
p532
aVAuditorium
p533
aVMusic School
p534
aVRECEPTION
p535
aVHouse
p536
aVHouse
p537
aVParthenon
p538
aVArtist
p539
aVTolstoy
p540
aVLincoln
p541
aVLincoln
p542
aVPocket
p543
aVMississippe
p544
aVDuncan
p545
aVMEMORIAL
p546
aVHastings
p547
aVAuditorium
p548
aVMusic School
p549
aVMusc School
p550
aVDEDICATION OF
p551
aVTHE
p552
aVMusic School
p553
aVMusic School
p554
aVCLUB
p555
aVClub
p556
aVHull-House Woman
p557
aVClub Building
p558
aVJuvenile Court
p559
aVEntertainment
p560
aVCOmmittee
p561
aVSpinsters
p562
aVVacation School
p563
aVSocial Extension Committee
p564
aVCounty League
p565
aVCongress of Mothers
p566
aVFederation
p567
aVDANTE
p568
aVALIGHIERI
p569
aVChcago Italian National Dante Alighieri
p570
aVParliament
p571
aVDante Alighieri Society
p572
aVITALIANO
p573
aVDELL
p574
aVRoom
p575
aVITALIAN
p576
aVCLUB
p577
aVLABOR
p578
aVLabor Museum
p579
aVField Museum
p580
aVHull-House Museum
p581
aVARTS
p582
aVCRAFTS
p583
aVArts
p584
aVBINDERY
p585
aVDRAMATIC
p586
aVElizabehan Stage Society
p587
aVSad Sheperd
p588
aVDRAMATIC
p589
aVCorsiola
p590
aVMcichthal
p591
aVChicago Bureau
p592
aVDANTE
p593
aVSCHOOL
p594
aVDante School
p595
aVSTREET
p596
aVKent
p597
aVSUMMER
p598
aVOUTINGS
p599
aVHull-House Clubs
p600
aVBureau
p601
aVSaugatuck
p602
aVForward Movement
p603
aVHull-House Woman
p604
aVUnited Church
p605
aVAuburn Park
p606
aVMaywood Woman
p607
aVHull-House Woman
p608
aVClub
p609
aVJackson
p610
aVCAMP
p611
aVGOODWILL
p612
aVICE
p613
aVAND
p614
aVTribune
p615
aVHouse
p616
aVHouse
p617
aVCoffee House
p618
aVChicago Milk Commission
p619
aVSUMMER
p620
aVGreeks Italians
p621
aVHull-House
p622
aVHouse
p623
aVCONFERENCE
p624
aVTHE
p625
aVILLEGAL
p626
aVHull-House
p627
aVComity Conrt
p628
aVBicknell
p629
aVChicago Bureau
p630
aVBureau
p631
aVState Board
p632
aVHouse
p633
aVHospital
p634
aVBoard
p635
aVTRADES
p636
aVHull-House
p637
aVPerident
p638
aVNational Organization
p639
aVLeague
p640
aVHull-House
p641
aVOpen Shop
p642
aVUnion
p643
aVSt. Louis Fair
p644
aVLeague
p645
aVCONSUMERS
p646
aVLEAGUE
p647
aVConsumers
p648
aVHull-House
p649
aVLeague
p650
aVState
p651
aVCoffee House
p652
aVHeart
p653
aVUniversity
p654
aVCeltic Renaissance
p655
aVINFORMAL
p656
aVGaelic
p657
aVMorley
p658
aVSelenka
p659
aVHull-House
p660
aVMUNICIPAL
p661
aVMUSEUM FOR
p662
aVMunicipal Museum
p663
aVWorld
p664
aVSt. Louis
p665
aVSocial Economy
p666
aVTransportation
p667
aVLiberal Arts
p668
aVFair
p669
aVLoan Exhibition
p670
aVPublic Library
p671
aVWorld
p672
aVSt. Louis Exhibits
p673
aVAPARTMENTS
p674
aVJane Club
p675
aVHull-House
p676
aVHull-House Woman
p677
aVClub
p678
aVWooman
p679
aVClub
p680
aVUniversity Extension Lectures
p681
aVAuditorium
p682
aVHull-House Woman
p683
aVClub
p684
aVHull-House
p685
aVCLUB
p686
aVHull-House Woman
p687
aVClub
p688
aVState Federation
p689
aVHull-House
p690
aVSocial Extension
p691
aVLinen Chest
p692
aVClub
p693
aVVacation School
p694
aVJuvenile Court
p695
aVWO
p696
aVClub Hall
p697
aVCoffee House
p698
aVCLUB
p699
aVClub Library
p700
aVAuditorium
p701
aVGymnasium
p702
aVCAMP
p703
aVGOOD
p704
aVUniversity Settlement
p705
aVLABOR
p706
aVLabor Museum
p707
aVField Museum
p708
aVHull-House Museum
p709
aVPhilippine
p710
aVTHREE
p711
aVThree Gifts
p712
aVMusic School
p713
aVDramatic Association
p714
aVThree Gifts
p715
aVThree Gifts
p716
aVAtlantic Monthly
p717
aVTROLLS
p718
aVTrolls
p719
aVChicago Tribune
p720
aVHull-House
p721
aVMusk School
p722
aVHouse
p723
aVTrolls
p724
aVDante School
p725
aVSTREET
p726
aVKent
p727
aVSUMMER
p728
aVOUTINGS
p729
aVBureau
p730
aVHull-House Woman
p731
aVLawndale
p732
aVJefferson Park Woman
p733
aVICE
p734
aVAND
p735
aVTribune
p736
aVHospital Society
p737
aVSUMMER
p738
aVHull-House
p739
aVWITH
p740
aVJUVENILE
p741
aVJuvenile Court Law
p742
aVHull-House
p743
aVCOFFEE
p744
aVCoffee House
p745
aVChicago Ethical Society
p746
aVCoffee House
p747
aVTRADE
p748
aVLEAGUE OF
p749
aVClub
p750
aVFall River Strike
p751
aVFall River
p752
aVUnionism
p753
aVTrade Union Movement
p754
aVBoot
p755
aVGarment Workers
p756
aVLabel
p757
aVKeough
p758
aVMakers
p759
aVGeo
p760
aVMakers
p761
aVAmerican Federation
p762
aVLabor Convention
p763
aVChicago Federation
p764
aVCommittee
p765
aVMinisters
p766
aVIna
p767
aVUnion Law Advocate Monthly
p768
aVEXECUTIVE
p769
aVBOARD Miss Jane Addams
p770
aVLauraD
p771
aVMaloney
p772
aVCONSUMERS
p773
aVLEAGUE
p774
aVIllinois Branch
p775
aVConsumers
p776
aVHull-House Woman
p777
aVClub Hall
p778
aVConsumers
p779
aVNational
p780
aVTenement House
p781
aVCONTEMPORARY
p782
aVHull-House
p783
aVNasimoff
p784
aVINFORMAL
p785
aVLECTURES
p786
aVUniversity
p787
aVBRANCH
p788
aVLEGAL
p789
aVHull-House
p790
aVHull-House
p791
aVLegal Aid Society
p792
aVBreshkovsky
p793
aVHareare
p794
aVMAZZINI
p795
aVClub Hall
p796
aVGreek Colony
p797
aVClub Hall
p798
aVProgress
p799
aVAmerican People
p800
aVParliament
p801
aVGreeks
p802
aVIMPROVEMENTS
p803
aVHouse
p804
aVCoffee House
p805
aVHouse
p806
aVVoman
p807
aVClub Hall
p808
aVCoffee House
p809
aVHull-House
p810
aVChicago Relief
p811
aVJane Chub
p812
aVRelief
p813
aVCLUB
p814
aVHull-House
p815
aVHull-House
p816
aVJuvenile Court
p817
aVHouse
p818
aVEDITORIAL
p819
aVBittletin
p820
aVBmietin
p821
aVYear Book
p822
aVBOOK One
p823
aVWV
p824
aVCollege Settlement
p825
aVVisitors Association
p826
aVCommons
p827
aVButler
p828
aVGymnasium
p829
aVHouse
p830
aVHull-House
p831
aVUniversity Extension
p832
aVUniversity Extension
p833
aVHull-House
p834
aVExtension Department
p835
aVUniversity
p836
aVCollege Extension
p837
aVSummer School
p838
aVRockford College
p839
aVRockford
p840
aVChautauqua
p841
aVCollege Extesion
p842
aVShakespeare Club
p843
aVUniversity
p844
aVLabor Museum
p845
aVClub
p846
aVClub
p847
aVClub
p848
aVUniversity
p849
aVClub
p850
aVClub
p851
aVClub
p852
aVComedy
p853
aVMidsummer Night
p854
aVClub
p855
aVUniversity
p856
aVClub
p857
aVHull-House Labor Museum
p858
aVBethlehem
p859
aVField Columbian Museum
p860
aVLabor Museum
p861
aVChicago Arts
p862
aVHull-House
p863
aVMusic School
p864
aVHouse
p865
aVMusic School
p866
aVHull-House
p867
aVTechnical
p868
aVClub
p869
aVClub
p870
aVClub
p871
aVClub
p872
aVOpen Shop
p873
aVSenators
p874
aVRelative
p875
aVClub
p876
aVClub
p877
aVClub
p878
aVClub
p879
aVDance Committee
p880
aVClub
p881
aVClub
p882
aVHull-House Woman
p883
aVClub
p884
aVClub
p885
aVClub
p886
aVYear Book
p887
aVCluh
p888
aVClub
p889
aVClub
p890
aVHull-House
p891
aVClub
p892
aVSocial Extension Committee
p893
aVClub
p894
aVNeighborhood Parties
p895
aVClub
p896
aVVacation Schools
p897
aVJuvenile Court Committee
p898
aVCook County League
p899
aVMothers
p900
aVCongress
p901
aVEntertainment Committee
p902
aVClub
p903
aVClub
p904
aVVacation School Fund
p905
aVOuting Committee
p906
aVGlenwood Park
p907
aVHull-House Woman
p908
aVClub Chorus
p909
aVClub
p910
aVClub
p911
aVClub
p912
aVVisiting Committee
p913
aVHome Committee
p914
aVClub
p915
aVClub
p916
aVChub
p917
aVClub Hall
p918
aVCoffee House
p919
aVGeneral Game Room
p920
aVClub
p921
aVCulver Club
p922
aVClub
p923
aVHull-House
p924
aVHull-House
p925
aVMardi Gras
p926
aVSt. Patrick
p927
aVSt. Patrick
p928
aVHull-House Social Clubs
p929
aVCotillion
p930
aVGras Of
p931
aVMardi Gras
p932
aVBallo Mascherato Italiano
p933
aVGymnasium
p934
aVMen
p935
aVClub Rooiii
p936
aVGymnasium
p937
aVGymnasium
p938
aVUniversity
p939
aVMusic School
p940
aVHoly Family
p941
aVHull-House
p942
aVConcerts
p943
aVMusic School
p944
aVinterAt
p945
aVClub
p946
aVClub
p947
aVKeough
p948
aVPILLARS OF
p949
aVIIENRIK
p950
aVChicago Tribune
p951
aVMagistrate
p952
aVMAGISTRATE
p953
aVWeavers
p954
aVClub
p955
aVPlays
p956
aVAjax
p957
aVGreek Cniony
p958
aVAssociation Versoniton
p959
aVPeresiades
p960
aVShepherd Girl
p961
aVHawthorne Club
p962
aVClub
p963
aVJOSEPH
p964
aVAND
p965
aVBRETHREN
p966
aVTHE
p967
aVCLUB
p968
aVBusiness Management
p969
aVJunior Dramatic Association
p970
aVHull-House
p971
aVIllinois Home
p972
aVAged
p973
aVSummer
p974
aVClub
p975
aVDeaf Children
p976
aVSociety
p977
aVMutual
p978
aVHouse
p979
aVLittlest Girl
p980
aVWife
p981
aVFrederick Douglass Center
p982
aVCent Theatre
p983
aVHull-House
p984
aVCoffee House
p985
aVNew England Kitchen
p986
aVClub
p987
aVChicago Ethical Society
p988
aVCoffee House
p989
aVCoffee House
p990
aVHouse
p991
aVChicago Post
p992
aVHull-House Clubs
p993
aVSaugatuck
p994
aVChicago Bureau
p995
aVHouse
p996
aVWinnctka
p997
aVHull-House
p998
aVJuvenile Protective League
p999
aVFroebel Association
p1000
aVHull-House
p1001
aVChicago Relief
p1002
aVCrane
p1003
aVJane Club
p1004
aVRelief
p1005
aVVisitilw Nurse Association
p1006
aVChicago Bureau
p1007
aVTribune
p1008
aVHospital Society
p1009
aVChicago Penny Savings System
p1010
aVTuberculosis Institute
p1011
aVSocial
p1012
aVHull-House
p1013
aVClub
p1014
aVHull-House
p1015
aVLaundry Workers Union
p1016
aVSuspender Workers
p1017
aVGarment Workers
p1018
aVUnion Label League
p1019
aVSuffrage Association
p1020
aVCharter Convention
p1021
aVHull-House
p1022
aVCampaign
p1023
aVJUNE
p1024
aVHull-House
p1025
aVHull-House
p1026
aVWCFC
p1027
aVPacific Coast
p1028
aVNational Socialists Association
p1029
aVChristianity
p1030
aVRadicals
p1031
aVUniversity
p1032
aVHull-House
p1033
aVHull-House
p1034
aVAghialos
p1035
aVCallisperi
p1036
aVPublic School
p1037
aVHull-House
p1038
aVBOOK
p1039
aVlull-flouse
p1040
aVLegal Aid
p1041
aVBranch
p1042
aVHull-House
p1043
aVBranch
p1044
aVHull-House
p1045
aVChicago Medical Society
p1046
aVIllinois Pharmaceutical Association
p1047
aVMunicipal
p1048
aVJuvenile Court Law
p1049
aVHull-House
p1050
aVCourt Committee
p1051
aVJuvenile Court Committee
p1052
aVDetention Home
p1053
aVNew Juvenile Court
p1054
aVBoard
p1055
aVCommissioners
p1056
aVNew Juvenile Court
p1057
aVHull-House
p1058
aVJuvenile Court Judges
p1059
aVInternational Juvenile Court League
p1060
aVHull-House
p1061
aVHull-House
p1062
aVJuvenile Protective League Of Cook Countv
p1063
aVHull-House Woman
p1064
aVClub
p1065
aVJuvenile Protective League
p1066
aVJuvenile Court
p1067
aVMunicipal Judges
p1068
aVLeague
p1069
aVLeague No
p1070
aVBranch
p1071
aVPublic
p1072
aVWorld
p1073
aVUniversity
p1074
aVMunicipal Museum
p1075
aVHull-House
p1076
aVHull-House
p1077
aVBrooks Casino
p1078
aVLabor Museum
p1079
aVIndustrial Exhibit
p1080
aVBoard
p1081
aVPublic School Art Society
p1082
aVHull-House
p1083
aVDante Public School
p1084
aVState Board
p1085
aVChicago Sctiool Board
p1086
aVJuvenile Court
p1087
aVChild Labor Law
p1088
aVHousing Investigation
p1089
aVHunter
p1090
aVHazard
p1091
aVStreet Since
p1092
aVParks Commission
p1093
aVNational Playground Association
p1094
aVVacation School
p1095
aVDante School
p1096
aVVacation Schools
p1097
aVVacation Schools
p1098
aVVacation Schools
p1099
aVHull-House
p1100
aVSundayay
p1101
aVRetail Clerk
p1102
aVUnion
p1103
aVConsumer
p1104
aVFederation
p1105
aVHull-House
p1106
aVNeighborhood
p1107
aVHouse
p1108
aVFederation
p1109
aVSlav Immigrant
p1110
aVMunicipal Research
p1111
aVFederation
p1112
aVIllinois Trades Union League
p1113
aVFederation
p1114
aVIndustrial Exhibit
p1115
aVCity
p1116
aVChicago Institute
p1117
aVSocial Science The Chicago Institute
p1118
aVSocial Science
p1119
aVHull-House
p1120
aVHull-House
p1121
aVHouse
p1122
aVCommittee
p1123
aVSafeguard Account Company
p1124
aVFinance Committee
p1125
aVHouse
p1126
aVMen
p1127
aVClub
p1128
aVHouse
p1129
aVAlisses Crchtman
p1130
aVHouse
p1131
aVGymnasium
p1132
aVOaf
p1133
aVHouse
p1134
aVStudio
p1135
aVDramatic
p1136
aVHull-House
p1137
aVUniversity Extenstion
p1138
aVUniversity
p1139
aVHull-House
p1140
aVExtension Department
p1141
aVUniversity
p1142
aVHull-House
p1143
aVCollege Extension
p1144
aVRockford College
p1145
aVRockford
p1146
aVChautauqua
p1147
aVCollege
p1148
aVShakespeare Club
p1149
aVUniversity
p1150
aVLabor Museum
p1151
aVCouncil
p1152
aVNeighborhood Council
p1153
aVHull-House Labor Museum
p1154
aVBethlehem
p1155
aVCelt
p1156
aVField Columbian Museum
p1157
aVLabor Museum
p1158
aVChicago Arts
p1159
aVHull-House
p1160
aVArts
p1161
aVPhilanthropy Department
p1162
aVChicano Win
p1163
aVIftillfloote
p1164
aVBenedict
p1165
aVSmith
p1166
aVHull-House
p1167
aVExhibition
p1168
aVExhibitirm
p1169
aVNorah Hamilton
p1170
aVHull-House
p1171
aVHull-House
p1172
aVHull-House Woman
p1173
aVYear Book
p1174
aVSchool Extensionn Committee
p1175
aVJuvenile Protective Association
p1176
aVGardeners
p1177
aVIllinois Federation
p1178
aVCook County League
p1179
aVMothers
p1180
aVCongress
p1181
aVSettlers
p1182
aVOld Settlers
p1183
aVHull-House
p1184
aVHull-House
p1185
aVParties Very
p1186
aVSocial Extension Committee
p1187
aVOuting Committee
p1188
aVClub Chorus
p1189
aVVisiting Committee
p1190
aVHouse Committee
p1191
aVClub
p1192
aVParties
p1193
aVYoung People
p1194
aVRecreation
p1195
aVClub
p1196
aVMaypole Dance
p1197
aVMay Party
p1198
aVHnll-House
p1199
aVBank
p1200
aVGad Hill
p1201
aVEducational Association Organized
p1202
aVHull-House
p1203
aVeMouzakiotis
p1204
aVCharitable
p1205
aVHull-House
p1206
aVHull-House
p1207
aVMiss Neukom
p1208
aVSocial Club
p1209
aVCircolo
p1210
aVCircolo
p1211
aVDante Alighieri Society
p1212
aVBenellccenza
p1213
aVHull-House
p1214
aVSocial Economies Club
p1215
aVSocial Economics Club
p1216
aVHouse
p1217
aVClub
p1218
aVUniversity Extension
p1219
aVPeople
p1220
aVHouse
p1221
aVHull-House
p1222
aVHull-House
p1223
aVHouse
p1224
aVMardi Gras
p1225
aVHouse
p1226
aVChicago Commonwealth Club
p1227
aVArts
p1228
aVSchool of Civics
p1229
aVNational Conference
p1230
aVCorrections
p1231
aVIllinois Equal Suffrage Association
p1232
aVHull-House
p1233
aVNational
p1234
aVShaw
p1235
aVState University
p1236
aVNational Playground Association
p1237
aVPittsburg Survey
p1238
aVHull-House Woman
p1239
aVClub
p1240
aVSinging Club
p1241
aVHomeward Club
p1242
aVBroadway Club
p1243
aVEdgemoore Club
p1244
aVGreek Peddlers
p1245
aVRubini Club
p1246
aVLiddell Club
p1247
aVNyoka Club
p1248
aVClub
p1249
aVMercury Athletic Club
p1250
aVPublic Receptions
p1251
aVInternational Council
p1252
aVGrippenherg
p1253
aVSt. Patrick
p1254
aVSt. Patrick
p1255
aVCotillon
p1256
aVGras Of
p1257
aVMardi Gras
p1258
aVBallo Mascherato Italiano
p1259
aVHouse
p1260
aVGymnasium
p1261
aVMen
p1262
aVClub
p1263
aVUniversity
p1264
aVPrrtunate
p1265
aVMen
p1266
aVClub
p1267
aVMusic School
p1268
aVDramatic Club
p1269
aVDryad
p1270
aVtheDryad
p1271
aVEcho Dwarfs
p1272
aVHull-House
p1273
aVHull-House
p1274
aVHawthorne Club
p1275
aVHawthorne Club
p1276
aVRivals
p1277
aVDramatic
p1278
aVDramatic Association
p1279
aVPied Piper
p1280
aVAjax
p1281
aVAssociation Versoniton
p1282
aVPeresiades
p1283
aVShepherd Girl
p1284
aVSon
p1285
aVImmigrant
p1286
aVPLAYS
p1287
aVLETTISH
p1288
aVYIDDISH
p1289
aVPLAYS
p1290
aVProgress Dramatic Club
p1291
aVHull-House
p1292
aVChicago Conservatory
p1293
aVTribune
p1294
aVCownioner
p1295
aVYoung People
p1296
aVSocialist League Dramatic Club
p1297
aVMajestic Dramatic Society
p1298
aVRichardson Players
p1299
aVCompany
p1300
aVYoung
p1301
aVJefferson Dramatic Club
p1302
aVOpportunity Club
p1303
aVMaxwell Street Settlement
p1304
aVSquare Deal Club
p1305
aVCoffee House
p1306
aVSmith
p1307
aVCoffee House
p1308
aVCoffee House
p1309
aVHunt
p1310
aVNew England Kitchen
p1311
aVSOUP
p1312
aVCoffee House
p1313
aVCoffee House
p1314
aVHouse
p1315
aVChicago Relief
p1316
aVJane Club
p1317
aVCrane
p1318
aVUnited
p1319
aVSmith
p1320
aVUnited
p1321
aVUnited
p1322
aVStreet
p1323
aVSmall Parks Commission
p1324
aVMineral Point
p1325
aVSocial Science Club
p1326
aVHull-House
p1327
aVHull-House
p1328
aVSuspender Workers
p1329
aVGarment Workers
p1330
aVInternational Brotherhood Welfare Association
p1331
aVEnglish Poor Law Commission
p1332
aVPermanent Situations
p1333
aVMen
p1334
aVDiscontinuous Employment
p1335
aVUnderemployed
p1336
aVUnemployable
p1337
aVRetail
p1338
aVConsumers
p1339
aVChicago Medical Society
p1340
aVItalians
p1341
aVAmerican Academy
p1342
aVAmerican Academy
p1343
aVHouse
p1344
aVHouse
p1345
aVLeague
p1346
aVAmerican Journal
p1347
aVGreeks
p1348
aVHouse
p1349
aVHouse
p1350
aVHouse
p1351
aVHouse
p1352
aVPublic School Art Society
p1353
aVHull-House
p1354
aVDante
p1355
aVState Board
p1356
aVChicago School Board
p1357
aVJuvenile Court
p1358
aVpopttlaOrin
p1359
aVHazard
p1360
aVHull-House
p1361
aVTuberculosis Institute
p1362
aVHull-House
p1363
aVMunicipal
p1364
aVChicago Department
p1365
aVUnited
p1366
aVUnited Charities
p1367
aVHouse
p1368
aVLondon
p1369
aVCook County
p1370
aVHull-House
p1371
aVLake Farm School
p1372
aVHull-House
p1373
aVLeague
p1374
aVHullHouse
p1375
aVLeague
p1376
aVImmigrants
p1377
aVHull-House
p1378
aVJuvenile Psychopathic
p1379
aVJuvenile Court
p1380
aVJuvenile Court
p1381
aVJuvenile Protective Association
p1382
aVJuvenile Protective Association
p1383
aVHull-House
p1384
aVJuvenile Protective Association
p1385
aVJuvenile Court Committee
p1386
aVHull-House
p1387
aVInternational Harvesterer Company
p1388
aVHull-House
p1389
aVAmerican Peace Society
p1390
aVField
p1391
aVAmerican Peace Society
p1392
aVMuicipal Museum
p1393
aVSchool of Civics
p1394
aVChicago Shool
p1395
aVRussell Sage Foundation
p1396
aVChicago School
p1397
aVHouse
p1398
aVHull-House
p1399
aVChicago Settlements For
p1400
aVFederation
p1401
aVAssociation
p1402
aVNeighborhood Workers
p1403
aVHull-House
p1404
aVFederation
p1405
aVHouse
p1406
aVSage Foundation
p1407
aVGymnasium
p1408
aVHouse
p1409
aVStudio
p1410
aVDramatic
p1411
aVHull-House
p1412
aVUniversity Extension
p1413
aVUniversity
p1414
aVHull-House
p1415
aVExtension Department
p1416
aVUniversity
p1417
aVHull-House
p1418
aVCollege
p1419
aVSummer School
p1420
aVRockford College
p1421
aVRockford
p1422
aVChautauqua
p1423
aVCollege
p1424
aVLabor Museum
p1425
aVLabor Museum
p1426
aVChicago Arts
p1427
aVHull-House
p1428
aVArts
p1429
aVPhilannthropy Department
p1430
aVChicago Woman
p1431
aVClub
p1432
aVDOMESTIC
p1433
aVBureau
p1434
aVEmployment Supervision
p1435
aVChicago School
p1436
aVHull-House
p1437
aVSmith
p1438
aVHull-House
p1439
aVExhibition
p1440
aVExhibition
p1441
aVAmerican Artists
p1442
aVHull-House
p1443
aVBowen Country Club
p1444
aVHull-House
p1445
aVArt Institute
p1446
aVHull-House Woman
p1447
aVClub
p1448
aVYear Book
p1449
aVSchool Extension Committee
p1450
aVJuvenile Protective Association
p1451
aVGardeners
p1452
aVWendell Phillips Colored Settlement
p1453
aVIllinois Federation
p1454
aVCook County League
p1455
aVMothers
p1456
aVCongress
p1457
aVSettlers
p1458
aVClub
p1459
aVOld Settlers
p1460
aVHull-House
p1461
aVHistorical Society
p1462
aVHull-House
p1463
aVParties Very
p1464
aVSocial Extension Committee
p1465
aVHull-House Labor Museum
p1466
aVBethlehem
p1467
aVCelt
p1468
aVField Columbian Museum
p1469
aVClub
p1470
aVMaypole Dance
p1471
aVMay Party
p1472
aVNational Red Cross Tournament
p1473
aVPool Room
p1474
aVRito
p1475
aVMercury Club
p1476
aVBank
p1477
aVLavery
p1478
aVMuskegon
p1479
aVGOodrich Company
p1480
aVMercury Club
p1481
aVMen
p1482
aVMercury Club
p1483
aVGymnasium
p1484
aVHull-House
p1485
aVMen
p1486
aVAthletic Club
p1487
aVPublic Discussions
p1488
aVSocial Science Club
p1489
aVHull-House
p1490
aVHull-House
p1491
aVElectrical Workers
p1492
aVNecktie Workers
p1493
aVGarment Workers
p1494
aVLocals
p1495
aVRUssian Exiles Meets
p1496
aVGood Templars
p1497
aVHull-House
p1498
aVCharitable
p1499
aVHull-House
p1500
aVHull-House
p1501
aVMiss Neukom
p1502
aVSocial Club Meets
p1503
aVBenefit
p1504
aVSt. George
p1505
aVHull-House
p1506
aVSocial Economics Club
p1507
aVSocial Economics Club
p1508
aVHull-House
p1509
aVSocial Economics Club
p1510
aVCafeteria
p1511
aVChicago Public Library
p1512
aVGYMNASIUM Gymnasium
p1513
aVClub
p1514
aVMay Party
p1515
aVClub
p1516
aVLa
p1517
aVHouse
p1518
aVClub
p1519
aVDrexel Club
p1520
aVFleur
p1521
aVPeople
p1522
aVClub
p1523
aVClub
p1524
aVPingree
p1525
aVClub
p1526
aVHull-House
p1527
aVMiss Himna
p1528
aVHull-House
p1529
aVSOCIAL
p1530
aVWeavers
p1531
aVLand
p1532
aVHalloweeen
p1533
aVSocial Club
p1534
aVHebrew Institute
p1535
aVWax Works
p1536
aVYoung Girls
p1537
aVLovejoy
p1538
aVHull-House
p1539
aVHouse
p1540
aVHulHouse
p1541
aVChicadee Club
p1542
aVSocial Club
p1543
aVHull-House Social Clubs
p1544
aVCommittee
p1545
aVSocial Clubs
p1546
aVHouse
p1547
aVHouse Social Clubs
p1548
aVCommittee
p1549
aVHouse
p1550
aVGreek Language
p1551
aVCrane Co
p1552
aVBrotherhood
p1553
aVIllinois Equal Suffrage Association
p1554
aVSOciety
p1555
aVBoy Scouts
p1556
aVColonial Roosevelt
p1557
aVHull-House
p1558
aVMardi Gras
p1559
aVSt. Patrick
p1560
aVSt. Patrick
p1561
aVHouse
p1562
aVGras Of
p1563
aVMardi Gras
p1564
aVBallo Mascherato Italiano
p1565
aVCircolo
p1566
aVPeople
p1567
aVHouse
p1568
aVService Closely
p1569
aVHouse
p1570
aVHouse
p1571
aVMUSIC
p1572
aVMusic School
p1573
aVChristmas Concert
p1574
aVMusic School
p1575
aVMusic School
p1576
aVHumperdinck
p1577
aVAnnunciation
p1578
aVShepherds
p1579
aVNativity
p1580
aVAdoration
p1581
aVMagii
p1582
aVAngels
p1583
aVItalians
p1584
aVMasque
p1585
aVHull-House
p1586
aVColiseum
p1587
aVChild Welfare Exhibit
p1588
aVHull-House
p1589
aVPublic Concerts
p1590
aVHull-House
p1591
aVChicago Post
p1592
aVHull-House
p1593
aVMcManus
p1594
aVJane Club
p1595
aVJane
p1596
aVHull-House
p1597
aVHull-House
p1598
aVHull-House
p1599
aVHull-House Players
p1600
aVHull-House Players
p1601
aVWorkhouse Ward
p1602
aVSea
p1603
aVHull-House Players
p1604
aVHull-House
p1605
aVSilver Box
p1606
aVSchoolmistress
p1607
aVPigeon
p1608
aVHull-House Players
p1609
aVFine Arts
p1610
aVChicago
p1611
aVAjax
p1612
aVSon
p1613
aVImmigrant
p1614
aVHauptinann
p1615
aVProgress Dramatic Club
p1616
aVHull-House
p1617
aVHull-House
p1618
aVDramatic
p1619
aVDramatic Association
p1620
aVHawthorne Club
p1621
aVHawthorne Club
p1622
aVSheridan
p1623
aVRivals
p1624
aVHull-House
p1625
aVHull-House
p1626
aVSmith
p1627
aVClubs
p1628
aVPlay Clubs
p1629
aVLittle Mothers
p1630
aVSaugatuck
p1631
aVCommons
p1632
aVNurses
p1633
aVCountry Club
p1634
aVOlga Hunke
p1635
aVJane Club
p1636
aVFriendly Club
p1637
aVBowen Country Club
p1638
aVCOFFEE
p1639
aVCoffee House
p1640
aVStates Department
p1641
aVNew England Kitchen
p1642
aVCoffee House
p1643
aVCoffee Honse
p1644
aVCoffee House
p1645
aVSmith
p1646
aVCoffee House
p1647
aVHouse
p1648
aVChicago Relief
p1649
aVJane Club
p1650
aVUnited
p1651
aVNursery
p1652
aVRoof Schools An
p1653
aVUnited
p1654
aVSmall Parks Commission
p1655
aVDante School
p1656
aVPark No
p1657
aVServices
p1658
aVHouse
p1659
aVHouse
p1660
aVPublic School Art Society
p1661
aVHull-House
p1662
aVDante
p1663
aVState Board
p1664
aVChicago School Board
p1665
aVJuvenile Court
p1666
aVCity Gardens Association
p1667
aVHarvester Garden
p1668
aVInternational Harvester
p1669
aVHull-House
p1670
aVAND
p1671
aVItalians
p1672
aVSlavs
p1673
aVHouse
p1674
aVLeague
p1675
aVHull-House
p1676
aVChicago Department
p1677
aVUnited
p1678
aVUnited Charities
p1679
aVHouse
p1680
aVLondon
p1681
aVJuvenile Court
p1682
aVCook County
p1683
aVHull-House
p1684
aVLeague
p1685
aVLeague
p1686
aVImmigrants
p1687
aVHull-House
p1688
aVBoard
p1689
aVTrustees
p1690
aVJuvenile Protective Association
p1691
aVHull-House
p1692
aVJane Club
p1693
aVMcClevey
p1694
aVRetail Clerks
p1695
aVConsumers
p1696
aVConsumers League
p1697
aVBoard
p1698
aVIllinois Society
p1699
aVMental Hygiene
p1700
aVIllinois Societies Committee
p1701
aVSocial Legislation
p1702
aVAmerican Vigilance
p1703
aVIllinois Equal Suffrage
p1704
aVHealth Department
p1705
aVNineteenth Ward
p1706
aVHebrew Institute
p1707
aVHouse
p1708
aVLibrary
p1709
aVArt Institute
p1710
aVSettlements For
p1711
aVFederation
p1712
aVSocial Service Club
p1713
aVHull-House
p1714
aVChicago School
p1715
aVRussell Sage Foundation
p1716
aVChicago School
p1717
aVJuvenile Court
p1718
aVHull-House
p1719
aVHull-House
p1720
aVHouse
p1721
aVHouse
p1722
aVButler
p1723
aVHouse
p1724
aVStudio
p1725
aVHull-House
p1726
aVUniversity Extension
p1727
aVUniversity
p1728
aVHull-House
p1729
aVExtension Department
p1730
aVUniversity
p1731
aVHull-House
p1732
aVCollege
p1733
aVSummer School
p1734
aVRockford College
p1735
aVRockford
p1736
aVChautauqua
p1737
aVLabor Museum
p1738
aVSocial Clubs
p1739
aVEssays
p1740
aVBoswell
p1741
aVUniversity
p1742
aVCurrent Topics Class
p1743
aVHull-House
p1744
aVdramaNorwegian
p1745
aVHull-House Labor Museum
p1746
aVBethlehem
p1747
aVCelt
p1748
aVField Columbian Museum
p1749
aVLabor Museum
p1750
aVChicago Arts
p1751
aVHull-House
p1752
aVArts
p1753
aVPhilannthropy Department
p1754
aVChicago Woman
p1755
aVClub
p1756
aVMercury Club
p1757
aVMen
p1758
aVMercury Club
p1759
aVGymnasium
p1760
aVHull-House
p1761
aVMen
p1762
aVAthletic Club This
p1763
aVPublic Discussions
p1764
aVPeople
p1765
aVCcience Club
p1766
aVHull-House
p1767
aVChicago Public
p1768
aVHull-House
p1769
aVElectrical Workers
p1770
aVNecktie Workers
p1771
aVGarment Workers
p1772
aVSocial Economics Club
p1773
aVSocial Club
p1774
aVVaitses
p1775
aVBenefit
p1776
aVSt. George
p1777
aVNineteenth Ward Socialist Club The Nineteenth Ward Branch
p1778
aVCook County Socialist Party
p1779
aVHull-House
p1780
aVSocialists
p1781
aVHull-House
p1782
aVIntercollegiate Socialist Society
p1783
aVHull-House
p1784
aVY.W.C.A.
p1785
aVDOMESTIC
p1786
aVHull-House Trade School
p1787
aVHouse
p1788
aVTrade School
p1789
aVTrade School
p1790
aVVocational Bureau
p1791
aVTrade School
p1792
aVHouse
p1793
aVAfternoon Clubs
p1794
aVTrade School
p1795
aVCountry Club
p1796
aVWaukegan
p1797
aVSTUDIO Miss Benedict
p1798
aVSmith Building
p1799
aVHull-House
p1800
aVExhibition
p1801
aVExhibition
p1802
aVAmerican Artists
p1803
aVBowen Country Club
p1804
aVHull-House
p1805
aVArt Institute
p1806
aVClasses for Children An
p1807
aVMUSIC
p1808
aVMusic School
p1809
aVMusic School
p1810
aVGibling
p1811
aVMusic
p1812
aVSChool
p1813
aVMusic School
p1814
aVMusuic
p1815
aVHumperdinek
p1816
aVAnnunciation
p1817
aVJourney
p1818
aVMagi
p1819
aVShepherds
p1820
aVNativity
p1821
aVAdoration
p1822
aVMagi
p1823
aVShepherds
p1824
aVHouse
p1825
aVEnchanted Swans
p1826
aVSweat Shop
p1827
aVShadow Child
p1828
aVLand
p1829
aVHull-House
p1830
aVCLUB
p1831
aVHull-House Woman
p1832
aVClub
p1833
aVParties The Woman
p1834
aVClub
p1835
aVeNcellent
p1836
aVPhilanthropic Department
p1837
aVJuvenile Protective Association
p1838
aVCity Gardens
p1839
aVSettlers
p1840
aVClub
p1841
aVOld Settlers
p1842
aVHull-House
p1843
aVHistorical Society
p1844
aVClub
p1845
aVMaypole Dance
p1846
aVMay Party
p1847
aVVoters
p1848
aVHull-House Woman
p1849
aVButler Building
p1850
aVHull-House School
p1851
aVMothers Law
p1852
aVBOYS
p1853
aVSenior Boys
p1854
aVCouncil
p1855
aVJunior Boys
p1856
aVSocial Activities
p1857
aVScoutmaster Spiess
p1858
aVNational Red Cross Tournament
p1859
aVSenate
p1860
aVBank
p1861
aVHull-House
p1862
aVEncampment Boys
p1863
aVMuskegon
p1864
aVSt. Joe
p1865
aVHULLHOUSE
p1866
aVGYMNASIUM Gymnasium
p1867
aVClub Department
p1868
aVNarragansett Machine Company
p1869
aVHebrew Institute
p1870
aVTrade School
p1871
aVSchool of Civics
p1872
aVContests Monthly
p1873
aVAnnual Indoor Athletic Meet
p1874
aVSan Francisco Exposition
p1875
aVState Club
p1876
aVBaseball League
p1877
aVSOCIAL
p1878
aVSocial Clubs Committee
p1879
aVRecreation Department
p1880
aVChicago School
p1881
aVGreek Social Club
p1882
aVCireolo
p1883
aVFriendly Club
p1884
aVPeople
p1885
aVParties
p1886
aVClub
p1887
aVChicago Federation
p1888
aVIda Wright Club
p1889
aVAdelphia
p1890
aVAdelphia Club
p1891
aVSocial Club The Amo Social Club
p1892
aVOliphant Down
p1893
aVMiss Leona Berge
p1894
aVMiss Carmelita
p1895
aVCamp Fire
p1896
aVCamp Fire
p1897
aVEldorado Club
p1898
aVElmo Club
p1899
aVMiss Dorothy North
p1900
aVScout
p1901
aVKismet Club
p1902
aVMiss Ethel Jennings
p1903
aVRecreation Department
p1904
aVChicago School
p1905
aVChicago Commons
p1906
aVClub
p1907
aVCrane Company
p1908
aVSilver Sword This
p1909
aVClub Polish
p1910
aVItalians
p1911
aVClub
p1912
aVParties
p1913
aVSocial Clubs Committee
p1914
aVPeople
p1915
aVHouse
p1916
aVFriendly Club
p1917
aVHull-House
p1918
aVCommittee
p1919
aVCircolo Italiano
p1920
aVHouse
p1921
aVCircolo
p1922
aVRed Cross
p1923
aVCircolo
p1924
aVMasked Ball
p1925
aVCarnival Season
p1926
aVGras Of
p1927
aVMardi Gras
p1928
aVBallo Mascherato Italiano
p1929
aVHull-House
p1930
aVCharitable
p1931
aVHull-House
p1932
aVSocial Club The Greek
p1933
aVSocial Club
p1934
aVMiss Jean Richards
p1935
aVHull-House
p1936
aVCLUBS After
p1937
aVBoy
p1938
aVClub
p1939
aVCamp Cooking
p1940
aVClub Chorus
p1941
aVMothers As
p1942
aVHull-House
p1943
aVSmith Building
p1944
aVNational Kindergarten Collegethe Froebel Pestalozzi Association
p1945
aVHull-House
p1946
aVHull-House
p1947
aVHull-House
p1948
aVHull-House Players
p1949
aVHull-House Players
p1950
aVHull-House Players Since
p1951
aVYear Book
p1952
aVPlayers
p1953
aVHull-House
p1954
aVHouse
p1955
aVuniTic
p1956
aVPiper
p1957
aVFrancis Parker School
p1958
aVShoemaker
p1959
aVGoosehead
p1960
aVBird
p1961
aVBroken Wing
p1962
aVMarionette Club The Marionette Club
p1963
aVMarionette Club Trio
p1964
aVMarionette Club
p1965
aVDramatic Club This
p1966
aVGolden Goose
p1967
aVSeven Dwarfs
p1968
aVDramatic Club
p1969
aVPrincess
p1970
aVThree Wishes
p1971
aVMignonette Club
p1972
aVChicadee Club
p1973
aVDrama Club
p1974
aVMeltin Pot
p1975
aVDrama Club
p1976
aVMidsummer Night
p1977
aVLand
p1978
aVCompulsion
p1979
aVRiverside
p1980
aVHawthorne Club
p1981
aVRivals
p1982
aVMob
p1983
aVForeign Plays Another
p1984
aVAjax
p1985
aVSon
p1986
aVImmigrant
p1987
aVProgress Dramatic Club
p1988
aVJane Club
p1989
aVJane Club
p1990
aVCOFFEE
p1991
aVCoffee House
p1992
aVCoffee House
p1993
aVCoffee House
p1994
aVCoffee House
p1995
aVCoffee House
p1996
aVMiss Cunningham
p1997
aVDOOR
p1998
aVSERVICE Closely
p1999
aVHouse
p2000
aVHouse
p2001
aVChicago Postoffice
p2002
aVHull-House
p2003
aVMcManus
p2004
aVHouse
p2005
aVChicago Relief
p2006
aVJane Club
p2007
aVUnited
p2008
aVNursery
p2009
aVNMiss Myrn Brockett
p2010
aVSchools An
p2011
aVPlaygrounds
p2012
aVParks Playground
p2013
aVSmall Parks Commission
p2014
aVDante School
p2015
aVPark
p2016
aVJOSEPH
p2017
aVCOUNTRY
p2018
aVCommons
p2019
aVRosenwald
p2020
aVRosenwald
p2021
aVCommons
p2022
aVCommons
p2023
aVBowen Country Club
p2024
aVJunior Dramatic Clubs
p2025
aVCountry
p2026
aVRidge Farm
p2027
aVUNEMPLOYMENT
p2028
aVAND
p2029
aVLABOR
p2030
aVUnemployed Men
p2031
aVHull-House
p2032
aVUnited
p2033
aVHull-House
p2034
aVUnited
p2035
aVUnited
p2036
aVHull-House
p2037
aVHouse
p2038
aVUnited
p2039
aVHouse
p2040
aVUnited
p2041
aVDistress
p2042
aVLillie
p2043
aVCommittee
p2044
aVLabor Committee
p2045
aVINVESTIGATION
p2046
aVAND
p2047
aVNineteenth Ward
p2048
aVWard
p2049
aVHouse
p2050
aVHull-House
p2051
aVHouse
p2052
aVHouse
p2053
aVPublic School Art Society
p2054
aVHull-House
p2055
aVDante
p2056
aVState Board
p2057
aVChicago School Board
p2058
aVJuvenile Court
p2059
aVHealth Department
p2060
aVCity
p2061
aVUnited
p2062
aVBureau
p2063
aVChicago Relief
p2064
aVCnited
p2065
aVHouse
p2066
aVBureau
p2067
aVCnited
p2068
aVHouse
p2069
aVHouse
p2070
aVSpecial Appeals Committee
p2071
aVHull-House
p2072
aVSide District
p2073
aVGarfield Park District
p2074
aVHaymarket District
p2075
aVDeKoven District
p2076
aVHouse
p2077
aVDeKoven District
p2078
aVHouse
p2079
aVAdvisory Committee
p2080
aVHull-House
p2081
aVHouse
p2082
aVDeKoven
p2083
aVJuvenile Court
p2084
aVCook County Juvenile Court
p2085
aVHull-House
p2086
aVPension
p2087
aVHouse
p2088
aVImmigrants
p2089
aVImmigrants
p2090
aVLeague
p2091
aVLeague
p2092
aVHull-House
p2093
aVBoard
p2094
aVTrustees
p2095
aVHull-House
p2096
aVJuvenile Protective Association
p2097
aVSears
p2098
aVHll-House
p2099
aVAssociation
p2100
aVJuvenile Protective Association
p2101
aVJuvenile Court Committee
p2102
aVAssociation
p2103
aVAssociation
p2104
aVService Club For
p2105
aVFederation
p2106
aVSocial Service Club
p2107
aVSocial Workers
p2108
aVRiverside
p2109
aVHousekeeping Center
p2110
aVJane Club
p2111
aVExtension
p2112
aVSymphony Orchchestra
p2113
aVHull-House
p2114
aVChicago School
p2115
aVFederal Children
p2116
aVBureau
p2117
aVRussell Sage Foundation
p2118
aVChicago School
p2119
aVJuvenile Court
p2120
aVHouse
p2121
aVItalians
p2122
aVHouse
p2123
aVHouse
p2124
aVVocational
p2125
aVJones School
p2126
aVHull-House Trade School
p2127
aVHouse
p2128
aVChicago City Gardens
p2129
aVGardens
p2130
aVAssociation
p2131
aVHarvester Garden
p2132
aVCommonwealth Garden
p2133
aVDrainage Canal Board
p2134
aVAssociation
p2135
aVColored
p2136
aVCathedral
p2137
aVSS
p2138
aVWendell Phillips
p2139
aVEfforts of Hull-House
p2140
aVBulgarians
p2141
aVGreat
p2142
aVNational Woman
p2143
aVPeace Party
p2144
aVInternational Congress
p2145
aVCongress
p2146
aVCongress
p2147
aVYoung Women
p2148
aVChicago Woman
p2149
aVRufus Dawes Hotel
p2150
aVSalvation Army Hotel
p2151
aVChicago Home
p2152
aVMusical School
p2153
aVMusic School
p2154
aVDistrict Office
p2155
aVCoffee House
p2156
aVMusic School
p2157
aVSt. Heller
p2158
aVMusic School
p2159
aVDistrict Office
p2160
aVJames Coffee House
p2161
aVJane Club
p2162
aVJane Club
p2163
aVJane Club
p2164
aVMusic School
p2165
aVMusic School
p2166
aVJane Club
p2167
aVNurse Association
p2168
aVHenry Booth House
p2169
aVParker School
p2170
aVItalian Orchestra
p2171
aVHarvest Home
p2172
aVMusic School
p2173
aVCoffee House
p2174
aVSmith College
p2175
aVOrchestra Association
p2176
aVPratt Institute
p2177
aVPratt Institute
p2178
aVSwift Cottage
p2179
aVGuardian Angel Church
p2180
aVMusic School
p2181
aVMusic School
p2182
aVJuvenile Court General Committee
p2183
aVSchool General Committee
p2184
aVKindergarten
p2185
aVItalian Orchestra
p2186
aVNurse Association
p2187
aVCamp Good-Will
p2188
aVCoffee House
p2189
aVTrade Union League
p2190
aVDramatic Club
p2191
aVMunicipal Museum
p2192
aVLabor Museum
p2193
aVGood Will
p2194
aVCoffee House
p2195
aVTrade Union League
p2196
aVMusik School
p2197
aVMusic School
p2198
aVCoffee House
p2199
aVTrade Union League
p2200
aVNurse Association
p2201
aVEnglish Cabinet
p2202
aVAid Society
p2203
aVAid Society
p2204
aVCoffee House
p2205
aVTrade Unions
p2206
aVEnglish Association
p2207
aVOrphan Home
p2208
aVForward Movement Camp
p2209
aVCamp Good Will
p2210
aVAid Society
p2211
aVAid Society
p2212
aVCoffee House
p2213
aVSavings Bank
p2214
aVTrade Union League
p2215
aVTrade Union League
p2216
aVMuseum A Municipal
p2217
aVPublic Library
p2218
aVSchool Vacation School
p2219
aVWellesley College
p2220
aVCoffee House
p2221
aVMusic School
p2222
aVNurse Association
p2223
aVAid Society
p2224
aVCharles Sumner Colored Settlement
p2225
aVClub Encampment
p2226
aVMusic School
p2227
aVTrade Union League
p2228
aVCoffee House
p2229
aVJunior Dramatic
p2230
aVJunior Dramatic
p2231
aVJunior Dramatic
p2232
aVAid Society
p2233
aVHenry Booth House
p2234
aVAid Society
p2235
aVNurscry Chicago
p2236
aVTuberculosis School
p2237
aVCrane Nursery
p2238
aVLaundry Workers
p2239
aVPscyhopathic Institute
p2240
aVGardens Association
p2241
aVPeace Society The Chicago Peace Society
p2242
aVMusic School
p2243
aVTrade School
p2244
aVAid Society
p2245
aVClub Encampent
p2246
aVEldorado Club
p2247
aVLis Club
p2248
aVTrade Union League
p2249
aVTrade Union League
p2250
aVSocial Club
p2251
aVItalian Social Club
p2252
aVGrace Episcopal Club Church
p2253
aVMusic School
p2254
aVMusic School
p2255
aVMusic School
p2256
aVForward Movement Camp
p2257
aVCamp Good Will
p2258
aVMusic School
p2259
aVAid Society
p2260
aVCrane Nursery
p2261
aVCrane Nursery
p2262
aVCrane Nursery
p2263
aVKindergarten
p2264
aVVarious Psychopathic Institue
p2265
aVCrane Nursery
p2266
aVIgnatius College
p2267
aVMusic School
p2268
aVClub Band
p2269
aVBlack Diamonds
p2270
aVLake Forest College
p2271
aVAthletic Club
p2272
aVTrade School
p2273
aVAlumnae Club
p2274
aVMusic School
p2275
aVMusic School
p2276
aVLibrary Club
p2277
aVOutdoor Baseball League
p2278
aVMercury Athletic Club
p2279
aVHenry Booth House
p2280
aVWood Gatherers
p2281
aVWright Club
p2282
aVGrace Episcopal
p2283
aVMusic School
p2284
aVJunior Dramatics
p2285
aVDrama Club
p2286
aVUrania Club
p2287
aVAid Sc
p2288
aVCrane Nursery
p2289
aVCrane Nursery
p2290
aVCrane Nursery
p2291
aVMusic School
p2292
aVAid Society
p2293
aVAdvisory Committee
p2294
aVMusic Extension
p2295
aVArt League
p2296
aVPhillips Settlement Many
p2297
aVChristian Association
p2298
aa(lp2299
VMiss Gerson
p2300
aVMiss Gerson
p2301
aVPond
p2302
aVPeter Lutkin
p2303
aVMiss
p2304
aVMabel Hay Barrows
p2305
aVSanta Claus
p2306
aVMr. Fernando Jones
p2307
aVMasterson
p2308
aVMr. Listel
p2309
aVLewis
p2310
aVShakespeare
p2311
aVLewis
p2312
aVMiss
p2313
aVEdward Markham
p2314
aVThomas Nelson Page
p2315
aVMarkham
p2316
aVFather Huntington
p2317
aVMr. John GrahaBrooks
p2318
aVBrooks
p2319
aVHenrotin
p2320
aVMr. McNutt
p2321
aVWard
p2322
aVWard
p2323
aVWilliam Shakespeare
p2324
aVMiss Cavanough
p2325
aVSanger Steele
p2326
aVMiss Brown
p2327
aVOfficer Murray
p2328
aVPatsy
p2329
aVLouis Schwartz
p2330
aVHanson McDowell
p2331
aVMr. Deknatel
p2332
aVMr. Thomas Moore
p2333
aVMiss
p2334
aVKathryn Chase
p2335
aVMiss Thompson
p2336
aVMiss Amory
p2337
aVMiss Matthews
p2338
aVMiss Jewett
p2339
aVMiss Hirst
p2340
aVMiss Hamilton
p2341
aVMiss Hett
p2342
aVMiss Belden
p2343
aVMiss Fyock
p2344
aVMiss Pierce
p2345
aVMiss Sheldon
p2346
aVMiss Eleanor Smith
p2347
aVMiss Heffrom
p2348
aVSarjent
p2349
aVSwedish System
p2350
aVMiss Rose Gylesl
p2351
aVDerexa Morey Errant
p2352
aVMiss
p2353
aVMiss Pryor
p2354
aVMiss Rogatz
p2355
aVMadison
p2356
aVMadame Valerio
p2357
aVThroop Streets
p2358
aVAlzina Parsons Stevens
p2359
aVStevens
p2360
aVStevens
p2361
aVStevens
p2362
aVAlzina Parsons Stevens
p2363
aVAlzina Parsons Stevens
p2364
aVEdward
p2365
aVMr. Edward
p2366
aVMr. L.
p2367
aVMiss Mary Sabin
p2368
aVMr. E.
p2369
aVMr. E.
p2370
aVMiss Eleanor Brown
p2371
aVMiss Eleanor Brown
p2372
aVFleury
p2373
aVFleury
p2374
aVMiss Elsie Fuog
p2375
aVJohannah Loeb
p2376
aVMiss Edna Barnum
p2377
aVMr. F.
p2378
aVMiss Louise Barwick
p2379
aVMiss Ida Porter
p2380
aVMiss Emma
p2381
aVKelley
p2382
aVMiss Jane Addams
p2383
aVMiss Bowman
p2384
aVFox
p2385
aVMiss
p2386
aVMiss Bartlett
p2387
aVMiss Bowman
p2388
aVBuffalo Bill
p2389
aVMr. Jefferson
p2390
aVMr. Jefferson
p2391
aVJefferson
p2392
aVJefferson
p2393
aVMr. Jefferson
p2394
aVMr. Jefferson
p2395
aVJulius Caesar
p2396
aVJames
p2397
aVShakespeare
p2398
aVSignor Maestro Valerio
p2399
aVValerio
p2400
aVQueen
p2401
aVMr. Valerio
p2402
aVMiss
p2403
aVMiss Lathrop
p2404
aVMiss
p2405
aVAddams
p2406
aVMiss
p2407
aVSidney A. Benedict
p2408
aVMiss Elizabeth Sutton
p2409
aVMiss Addams
p2410
aVMorris Rosenfeld
p2411
aVMiss Eleanor Smith
p2412
aVDutchman Wagner
p2413
aVRondo
p2414
aVE Major
p2415
aVBeethoven Blanche Ebert
p2416
aVTaubert
p2417
aVSandmannchen
p2418
aVBilawsky
p2419
aVHller Blanche Ebert
p2420
aVIrish Lullaby
p2421
aVShubert Charles Cornish
p2422
aVBarnyard Folk
p2423
aVGrieg
p2424
aVGried Frances Thomas
p2425
aVCharles Cornish
p2426
aVMiss
p2427
aVMill
p2428
aVMiss
p2429
aVMiss Starr
p2430
aVFuller
p2431
aVAndree
p2432
aVStevens
p2433
aVMiss Neal
p2434
aVMr. Battis
p2435
aVBasil
p2436
aVMr. Victor Sincere
p2437
aVMiss Florence Holbrook
p2438
aVMr. C.
p2439
aVAshbee
p2440
aVMr. Zueblin
p2441
aVMr. Duncan
p2442
aVDwight Perkins
p2443
aVMr. Donnelly
p2444
aVMiss Addams
p2445
aVMr. Frank Wright
p2446
aVMr. Louis Sullivan
p2447
aVMiss Mary Colison
p2448
aVMiss
p2449
aVKathryn Chase
p2450
aVMiss Thompson
p2451
aVMiss Amory
p2452
aVMiss Matthews
p2453
aVMiss Jewett
p2454
aVMiss Hirst
p2455
aVMiss Hamilton
p2456
aVMiss Ilett
p2457
aVMiss Belden
p2458
aVMiss Fyock
p2459
aVPierce
p2460
aVMiss Mount
p2461
aVMiss Eleanor Esmil
p2462
aVMiss Heffron
p2463
aVSarjent
p2464
aVSwedish System
p2465
aVMiss Rose Gyles
p2466
aVDerexa Morey Errant
p2467
aVMadison
p2468
aVSub
p2469
aVMadame
p2470
aVHenrotin
p2471
aVMorris Rosenfeld
p2472
aVThroop Streets
p2473
aVMr. Robert Bruere
p2474
aVWard
p2475
aVFaust
p2476
aVHatfield
p2477
aVWard
p2478
aVHatfield
p2479
aVWard
p2480
aVBriggs
p2481
aVBlaine
p2482
aVMiss Hughes
p2483
aVMiss Hughes
p2484
aVSchutze
p2485
aVHauptmann
p2486
aVHauptmann
p2487
aVMr. Frederic Harrison
p2488
aVHarrison
p2489
aVGaribaldi
p2490
aVMazzini
p2491
aVGeorge Eliot
p2492
aVCarlyle
p2493
aVAnthony Trollope
p2494
aVJohn Bright
p2495
aVGladstone
p2496
aVValerio
p2497
aVCount Rczwadowski
p2498
aVCyrano
p2499
aVBergerac
p2500
aVMaestro Vecchinno
p2501
aVMoestro
p2502
aVOmaha
p2503
aVMr. Everhart
p2504
aVMiss Addams
p2505
aVMiss Brown
p2506
aVMiss Brown
p2507
aVMiss Scott
p2508
aVMr. Bentley
p2509
aVMiss Evans
p2510
aVMr. Keyser
p2511
aVMr. Keyser
p2512
aVMr. Keyser
p2513
aVMiss Evans
p2514
aVMr. Keyser
p2515
aVMr. Hooker
p2516
aVMiss Addams
p2517
aVMiss Evans
p2518
aVMr. Keyser
p2519
aVBentley
p2520
aVMr. Kent
p2521
aVMiss Mary Roys
p2522
aVOstrander
p2523
aVOstrander
p2524
aVSamakov
p2525
aVMr. Ostrander
p2526
aVMiss Stone
p2527
aVRobert
p2528
aVMiss Grace Kalling
p2529
aVPinkie Lentz
p2530
aVMiss Harriss
p2531
aVMr. Charles Cornish
p2532
aVMiss Brockway
p2533
aVMr. Burge
p2534
aVMr. Deknatel
p2535
aVMr. Riddle
p2536
aVJenkin Lloyd Jones
p2537
aVAbraham Lincoln
p2538
aVFiler
p2539
aVDandy
p2540
aVEdward Everett Hale
p2541
aVKingley
p2542
aVRobinson Crusoe
p2543
aVCarroll
p2544
aVSouthey
p2545
aVWat Tyler
p2546
aVMr. Charles Cornish
p2547
aVOfficer Murray
p2548
aVOfficer Murray
p2549
aVFrancis Peabody
p2550
aVAdler
p2551
aVMr. A.
p2552
aVSignor
p2553
aVValerio
p2554
aVMaestro Guiseppe Vecchione
p2555
aVMadame
p2556
aVCapparelli
p2557
aVGatta
p2558
aVSignora Giovanna Marchetti
p2559
aVSignor Guiseppe Albano
p2560
aVGuiseppe Albano
p2561
aVMaria Speciale
p2562
aVErminio
p2563
aVMaria Gualano
p2564
aVPietro Armando
p2565
aVBernardo
p2566
aVLucia Vacca
p2567
aVDonato Fiore
p2568
aVGiovanna Marchetti
p2569
aVFred Root
p2570
aVSamuel Greeley
p2571
aVMr. Fernanlo Jones
p2572
aVMr. Thos
p2573
aVMiss Helen Culver
p2574
aVFather
p2575
aVMr. Fulkt
p2576
aVTillet
p2577
aVMr. Thomas
p2578
aVMr. Zeutilin
p2579
aVMr. Tillett
p2580
aVTillett
p2581
aVMr. Ben Tillett
p2582
aVTillett
p2583
aVMr. Thomas
p2584
aVMr. Zeublin
p2585
aVMr. Tillett
p2586
aVMr. Tillett
p2587
aVIrene Ashby McFadyen
p2588
aVMiss Fitzgerald
p2589
aVHelen Culver
p2590
aVMiss Ella Waite
p2591
aVFuller
p2592
aVJessie Dabe
p2593
aVFuller
p2594
aVMiss Addams
p2595
aVMiss Eleanor Smith
p2596
aVMiss Martindale
p2597
aVBown
p2598
aVMinnie Ranker
p2599
aVHorton
p2600
aVTbcy
p2601
aVShall
p2602
aVSires
p2603
aVAnnie Balling
p2604
aVAlbert Johnson
p2605
aVPinkie Lentz
p2606
aVMr. James Minnick
p2607
aVMiss Pitkin
p2608
aVMiss Howe
p2609
aVMr. E.
p2610
aVMiss Benedict
p2611
aVMr. Rockwell
p2612
aVMr. Riddle
p2613
aVMr. Britton
p2614
aVMiss Nancrede
p2615
aVMr. E.
p2616
aVMr. Riddle
p2617
aVMr. .Deknatel
p2618
aVMr. Johnson
p2619
aVSamuel Cook
p2620
aVJacob Block
p2621
aVDaniel Wolfson
p2622
aVJulius Caesar
p2623
aVRichard Mansfield
p2624
aVSouthey
p2625
aVWat Tyler
p2626
aVMr. Cornish
p2627
aVMr. Riddle
p2628
aVMiss Set
p2629
aVJacquard
p2630
aVMr. Klindera
p2631
aVMr. Millard
p2632
aVMiss Starr
p2633
aVPeter Verburg
p2634
aVMr. Douglas Cockerell
p2635
aVMiss Starr
p2636
aVWill La
p2637
aVSamuel Cooperman
p2638
aVSternfield
p2639
aVMr. Will
p2640
aVMr. Charles
p2641
aVMiss
p2642
aVKathryn Chase
p2643
aVMiss Thompson
p2644
aVMiss Emerick
p2645
aVMiss Matthew
p2646
aVMiss Jewett
p2647
aVMiss Newbre
p2648
aVMiss Dalton
p2649
aVMiss Willis
p2650
aVMiss Newhull
p2651
aVMiss Short
p2652
aVMr. J
p2653
aVMrs Percy Widdrigton
p2654
aVChautauqua
p2655
aVMiss Addams
p2656
aVMr. Earl Barnes
p2657
aVMiss Addams
p2658
aVNorton
p2659
aVMr. Vincent
p2660
aVMiss Kimbell
p2661
aVLeo Tolstoy
p2662
aVMiss Zona Vallance
p2663
aVMr. John Hobson
p2664
aVLake
p2665
aVMiss Howe
p2666
aVMiss Gerson
p2667
aVMiss Hamilton
p2668
aVFernando Jones
p2669
aVAddison Ballard
p2670
aVMiss
p2671
aVMiss Dalton
p2672
aVMaestro Giuseppe Vecchione
p2673
aVMaestro Vecchione
p2674
aVMaestro Vecchione
p2675
aVMaestro Pietro Mascagni
p2676
aVMaestro Vecchione
p2677
aVVecchione
p2678
aVMascagni
p2679
aVMiss
p2680
aVEleanor Smith
p2681
aVMiss
p2682
aVStella Loeb
p2683
aVMiss Amalie Hannig
p2684
aVMiss Gertrude Smith
p2685
aVMr. Charles Cornish
p2686
aVMiss Rose Marie
p2687
aVBrown
p2688
aVMiss
p2689
aVJoseph E. Hora
p2690
aVSpitzer
p2691
aVLabow
p2692
aVJacobson
p2693
aVBehr
p2694
aVZncherman
p2695
aVJacobson
p2696
aVChauenson
p2697
aVLabow
p2698
aVChauenson
p2699
aVSpitzer
p2700
aVJacobson
p2701
aVMr. Francis Kales
p2702
aVSteven
p2703
aVLinen Chest
p2704
aVMiss Howe
p2705
aVSarah Harper
p2706
aVMargaret Wilson
p2707
aVJosephine McWilliams
p2708
aVFuller
p2709
aVPelham
p2710
aVWat Tyler
p2711
aVJulius Caesar
p2712
aVQueen Esther
p2713
aVMiss Benedict
p2714
aVMiss Nancrede
p2715
aVJulius Carsar
p2716
aVBrutus
p2717
aVCassius
p2718
aVQueen Esther
p2719
aVMiss Benedict
p2720
aVMr. Charles Cornish
p2721
aVLillian Bielawsky
p2722
aVMiss Clara Furstenberg
p2723
aVHaman
p2724
aVMiss
p2725
aVStarr
p2726
aVMr. Verberg
p2727
aVMiss Anne Widdington
p2728
aVOfficer Murray
p2729
aVCare
p2730
aVMaestro Guiseppe Vecchione
p2731
aVMaestro Vecchione
p2732
aVMaestro Vecchione
p2733
aVEdward F. Dunne
p2734
aVPaul J. Moran
p2735
aVGleason
p2736
aVJames Tufts
p2737
aVJames Mavor
p2738
aVEnry D. Lloyd
p2739
aVMiss Vail
p2740
aVMiss Thomas
p2741
aVMiss Weed
p2742
aVMiss Lemcke
p2743
aVMiss Ketcham
p2744
aVMr. Rossbach
p2745
aVChautauqua
p2746
aVBily View
p2747
aVMiss Addams
p2748
aVMiss
p2749
aVGiuseppe Montenero
p2750
aVMiss
p2751
aVWaite
p2752
aVBrosnahan
p2753
aVSaugatauk
p2754
aVMyron E. Adams
p2755
aVMr. Orville
p2756
aVMr. Henry
p2757
aVMiss Addams
p2758
aVAlexander
p2759
aVAristotle
p2760
aVMiss Barrows
p2761
aVMiss
p2762
aVMiss
p2763
aVHarriet A.
p2764
aVMiss Boyd
p2765
aVAthena
p2766
aVMenelaus
p2767
aVTeucer
p2768
aVOdysseus
p2769
aVAthena
p2770
aVMr. Willys Peck Kent
p2771
aVMiss Addams
p2772
aVMiss Barrows
p2773
aVMiss Addams
p2774
aVFather
p2775
aVTom Pinch
p2776
aVDavid Garrick
p2777
aVMiss Anna Morgan
p2778
aVMiss
p2779
aVBradley
p2780
aVHamlet
p2781
aVJOHN MITCHELL
p2782
aVMr. John Mitchell
p2783
aVMr. Walter
p2784
aVMr. Mitchell
p2785
aVMr. Mitchell
p2786
aVMr. Ernest Howard Crosby
p2787
aVMiss Eleanor Smith
p2788
aVMr. John Duncan
p2789
aVDuncan
p2790
aVMr. Julius Olson Nordfeldt
p2791
aVDuncan
p2792
aVTolstoy
p2793
aVMr. Nordfeldt
p2794
aVLincoln
p2795
aVLincoln
p2796
aVMr. Hazenplug
p2797
aVMr. Ben Cohen
p2798
aVMiss Vivian Berlins
p2799
aVMr. Andrew Carnegie
p2800
aVMiss
p2801
aVMary Rozet Smith
p2802
aVSarah Rozet Smith
p2803
aVFranz Gruncke
p2804
aVSmith
p2805
aVKoven Bowen
p2806
aVLouisa Fyffe
p2807
aVMr. Frank
p2808
aVJessie Dabe
p2809
aVStevens
p2810
aVLinen Chest
p2811
aVMarian Moran
p2812
aVCook
p2813
aVAttilio Burnniatti
p2814
aVMiss Bertha Hazard
p2815
aVBritton
p2816
aVMaestro Giuseppe Vecchione
p2817
aVMaestro Vecchione
p2818
aVMaestro Vecchione
p2819
aVCharles Yeomans
p2820
aVThompson
p2821
aVElsie Smith
p2822
aVLyman
p2823
aVHowe
p2824
aVBinford
p2825
aVMiss
p2826
aVStarr
p2827
aVBrosnahan
p2828
aVMr. Alex
p2829
aVMr. Fogliati
p2830
aVMr. Isidore Friedman
p2831
aVMr. Caruso
p2832
aVMr. Hazenplug
p2833
aVMiss Starr
p2834
aVMiss
p2835
aVStarr
p2836
aVRobertson
p2837
aVKerry
p2838
aVBoucicault
p2839
aVGilbert
p2840
aVGilbert
p2841
aVKerry
p2842
aVMr. George Crampton
p2843
aVBen Jonson
p2844
aVMiss Lemke
p2845
aVMiss Howe
p2846
aVMiss Dainty
p2847
aVMr. Crampton
p2848
aVMiss Nancrede
p2849
aVMr. Hazenplug
p2850
aVMiss Benedict
p2851
aVmR. Twose
p2852
aVMiss Nancrede
p2853
aVBen Jonson
p2854
aVBen Jonson
p2855
aVShakespeare
p2856
aVJacob Mock Samuel Cook
p2857
aVEdward Walther
p2858
aVMorris Levinson
p2859
aVCharles Isaksen
p2860
aVJoseph Cinoisky
p2861
aVPhilip Horwich
p2862
aVSol Furstenberg
p2863
aVThomas Dillon
p2864
aVMiss Nancrede
p2865
aVSchiller
p2866
aVWilliam Tell
p2867
aVShakespeare
p2868
aVWilliam Tell
p2869
aVMr. James
p2870
aVMiss
p2871
aVKathryn Chase
p2872
aVMiss Emerick
p2873
aVMiss Matthews
p2874
aVMiss Dalton
p2875
aVMr. William Kent
p2876
aVMather
p2877
aVFox
p2878
aVMr. Maynard
p2879
aVMr. Riddle
p2880
aVMiss Lathrop
p2881
aVMiss Davies
p2882
aVMiss
p2883
aVMiss Crosby
p2884
aVMiss Kennard
p2885
aVMiss Winter
p2886
aVPoles
p2887
aVSachs
p2888
aVMiss
p2889
aVBertha Hazard
p2890
aVSamuel
p2891
aVMr. Samuel Jones
p2892
aVJones
p2893
aVJones
p2894
aVOughton
p2895
aVMiss Hamilton
p2896
aVMiss Bnford
p2897
aVMiss Lathrop
p2898
aVOfficer Murray
p2899
aVMiss Mary McDowell
p2900
aVMiss Maud Sutter
p2901
aVMiss Gertrude Barnum
p2902
aVMiss
p2903
aVBarnum
p2904
aVMiss Anna Nichols
p2905
aVMr. Stausleby
p2906
aVMr. Abram Ross
p2907
aVMr. Bisno
p2908
aVMr. Bruce
p2909
aVWilmarth
p2910
aVMr. Michael Donnelly
p2911
aVMr. Luke Grant
p2912
aVMiss
p2913
aVMary McDowell
p2914
aVKenny O'Sullivan
p2915
aVPerkins Gilman
p2916
aVMiss Mary Shaw
p2917
aVMiss Addams
p2918
aVMiss Shaw
p2919
aVMiss
p2920
aVShaw
p2921
aVYeats
p2922
aVIbsen
p2923
aVMr. Yeats
p2924
aVYeats
p2925
aVMr. Butler
p2926
aVGeorge Moore
p2927
aVMr. Yeats
p2928
aVJohn
p2929
aVFrau
p2930
aVCharles Wagner
p2931
aVPastor Konig
p2932
aVMr. John
p2933
aVKenworthy
p2934
aVMr. Adloph Smithe
p2935
aVJoseph T. Bowen
p2936
aVMiss
p2937
aVMiss McDowell
p2938
aVFrank M. Jeffords
p2939
aVBowen
p2940
aVBowen
p2941
aVLaura Dainty Pelham
p2942
aVNina R. Cummings
p2943
aVTreasurer
p2944
aVSarah Jacobs
p2945
aVRichardson
p2946
aVMiss Addams
p2947
aVMiss Binford
p2948
aVMiss Harris
p2949
aVMr. Dickinson
p2950
aVMr. Edward Yeomans
p2951
aVDirector
p2952
aVMr. La Favor
p2953
aVMr. Riddle
p2954
aVMr. Stern
p2955
aVMr. Nabour
p2956
aVMr. Deknatel
p2957
aVBronte
p2958
aVMr. McCormick
p2959
aVHauptman
p2960
aVBarrett
p2961
aVMiss Bessie Doyle
p2962
aVMiss Margaret Skelly
p2963
aVMr. Jackson Moore
p2964
aVTim
p2965
aVMiss Florence Converse
p2966
aVMiss Converse
p2967
aVMiss Harriet Monroe
p2968
aVMiss Eleanor Smith
p2969
aVMiss Smith
p2970
aVMiss Nancrede
p2971
aVMr. William Kent
p2972
aVNfather
p2973
aVDee
p2974
aVMr. Brown
p2975
aVPoles
p2976
aVGeorge B. Robinson
p2977
aVMr. J. Kane
p2978
aVStruggle_Miss Ellen Lindstrom
p2979
aVMae
p2980
aVBroom
p2981
aVShoe
p2982
aVGlove
p2983
aVAgnes Nestor
p2984
aVChairman National Child Labor Committee
p2985
aVMr. Ethelbert Stewart
p2986
aVEllen M. Henrotin
p2987
aVCarrie
p2988
aVGlove
p2989
aVMiss
p2990
aVAgnes Nestor
p2991
aVNail Makers
p2992
aVMiss
p2993
aVKatherine Mader
p2994
aVJosephine Carey
p2995
aVMiss
p2996
aVEllen Lindstrom
p2997
aVMiss
p2998
aVMary McDowell
p2999
aVMarion McLean
p3000
aVMiss
p3001
aVAnnie
p3002
aVMr. Wignall
p3003
aVEthelbert Steward
p3004
aVMiss Gertrude Doenum
p3005
aVMiss McDowell
p3006
aVMiss Mary McDowell
p3007
aVRobbins
p3008
aVAnna Nicholes
p3009
aVMiss
p3010
aVKatherine Mader
p3011
aVTreasirrer
p3012
aVMiss Agnes Nestor
p3013
aVMiss Mary Reynolds
p3014
aVMiss Bertha
p3015
aVHanna
p3016
aVMiss Mary Anderson
p3017
aVCarrie
p3018
aVMiss Josephine
p3019
aVElizabeth
p3020
aVMr. John Graham Brooks
p3021
aVMr. Paul
p3022
aVAlla
p3023
aVMilyoukov
p3024
aVMiss Binford
p3025
aVKatherine
p3026
aVJohn Burns
p3027
aVGiuseppe Mazzini
p3028
aVMazzini
p3029
aVSignor Mario De Eiasi
p3030
aVSignor G. Rodighicro
p3031
aVGiovane Italia
p3032
aVMiss Addams
p3033
aVMazzini
p3034
aVGiovane Italia
p3035
aVMazzini
p3036
aVMiss Addams
p3037
aVDunne
p3038
aVSignor Nicholas Barbato
p3039
aVMr. Crane
p3040
aVJoseph T. Bowen
p3041
aVMr. Riddle
p3042
aVGraham R. Taylor
p3043
aVHull
p3044
aVHalsted Street
p3045
aVMr. Charles J
p3046
aVHull
p3047
aVMr. Goode
p3048
aVMiss Stares
p3049
aVDante
p3050
aVMiss Shakespeare Starr
p3051
aVMiss Bertha Tatch
p3052
aVMiss Mary Curtin
p3053
aVTreasurer
p3054
aVHenry Porter Chandler
p3055
aVMr. Chandler
p3056
aVMr. Clyde
p3057
aVJennie Folsom Morrill
p3058
aVJohn
p3059
aVCymbeline
p3060
aVJulius Cwsar
p3061
aVHamlet
p3062
aVMr. G.
p3063
aVMoulton
p3064
aVMiss Myra Reynolds
p3065
aVMr. Herrick
p3066
aVMiss
p3067
aVJulia Marlowe
p3068
aVDavid
p3069
aVCelt
p3070
aVStevens
p3071
aVMiss Bessie Spilman
p3072
aVMiss Elsie Lund
p3073
aVMr. Frank
p3074
aVMr. Mulligan
p3075
aVMiss Mulligan
p3076
aVMiss Rarden
p3077
aVMiss Schuttler
p3078
aVMr. Moore
p3079
aVMiss Leslie
p3080
aVMiss Reoch
p3081
aVCulver
p3082
aVMiss Addams
p3083
aVMiss Helen Culver
p3084
aVMr. Graham Taylor
p3085
aVCaptain Bradley
p3086
aVMr. Riddle
p3087
aVBowen
p3088
aVMiss
p3089
aVCulver
p3090
aVMiss Louise Zerr
p3091
aVMiss
p3092
aVBensinger
p3093
aVHininan
p3094
aVPatrick
p3095
aVJohnny Hand
p3096
aVMr. Baldwin
p3097
aVAllen Haines
p3098
aVMr. Livingston Fairbank
p3099
aVMardi
p3100
aVSignor Valerio
p3101
aVBowen
p3102
aVMr. Tomlins
p3103
aVMiss
p3104
aVGyles
p3105
aVMr. E.
p3106
aVAlbert Clausson
p3107
aVJames Murphy
p3108
aVJohn McManus
p3109
aVMichael O'Connell
p3110
aVEdward Patera
p3111
aVEdward
p3112
aVFrank McLoughlin
p3113
aVBert Peary
p3114
aVThomas Burnett
p3115
aVEdward
p3116
aVChas Wolf
p3117
aVAl Behr
p3118
aVLouis
p3119
aVJacob Rodkin
p3120
aVKings
p3121
aVIbsen
p3122
aVShaw
p3123
aVAvell
p3124
aV.fackson Moore
p3125
aVLaura Thornton
p3126
aVFrederick H. Deknatel
p3127
aVLaura Dainty Pelham
p3128
aVFrank
p3129
aVMr. Hubbard
p3130
aVLaura Dainty Pelham
p3131
aVMiss Barrovs
p3132
aVJoseph
p3133
aVMiss Benedict
p3134
aVMiss Nancrede
p3135
aVHebrew Scholars
p3136
aVMr. Frederick
p3137
aVNas
p3138
aVLow C.
p3139
aVSister
p3140
aVDunbar
p3141
aVCelia Parker
p3142
aVWooley
p3143
aVMr. Selig
p3144
aVMr. Laemle
p3145
aVUncle Tom
p3146
aVJean Val Jean
p3147
aVMiss Hunt
p3148
aVEmil
p3149
aVHansen
p3150
aVHagenbach
p3151
aVBuffalo Bill
p3152
aVHackett
p3153
aVMiss Conley
p3154
aVMichler
p3155
aVMiss Howe
p3156
aVMarie Hanson
p3157
aVNursery Mothers
p3158
aVMiss Hamburglicr
p3159
aVMiss
p3160
aVRandall
p3161
aVMar
p3162
aVCrane Partly
p3163
aVIre
p3164
aVMiss
p3165
aVKathryn Chase
p3166
aVMiss Emeriek
p3167
aVMiss Matthews
p3168
aVMiss Dalton
p3169
aVMal
p3170
aVIniinati 'd
p3171
aVMiss
p3172
aVJane Addams
p3173
aVMr. Louis
p3174
aVRobins
p3175
aVAnna Blount
p3176
aVMiss
p3177
aVHenry
p3178
aVMr. Kellogg Durland
p3179
aVAlyadin
p3180
aVTchalkovsky
p3181
aVMr. Francis
p3182
aVSig
p3183
aVLincoln
p3184
aVMr. W.
p3185
aVBowen
p3186
aVMr. Alex
p3187
aVMiss Callisperi
p3188
aVMiss
p3189
aVMiss Binford
p3190
aVMr. For-stall
p3191
aVMr. Smoot
p3192
aVMiss Duffy
p3193
aVMr. Hora
p3194
aVBorosini
p3195
aVMiss Rich
p3196
aVWilliam Busse
p3197
aVMr. Edward J. Brundage
p3198
aVMiss Julia
p3199
aVRichard
p3200
aVMr. Ephraim Banning
p3201
aVOrrin
p3202
aVGeorge
p3203
aVMr. T.
p3204
aVHurley
p3205
aVMr. Henry
p3206
aVMr. William
p3207
aVMr. Frank
p3208
aVBennett
p3209
aVLiwkey
p3210
aVJulienne
p3211
aVCarpenter
p3212
aVMiss Minnie Low
p3213
aVMr. Henry Thurston
p3214
aVSadler
p3215
aVDean Walter
p3216
aVMiss Jesie
p3217
aVMr. John II
p3218
aVCenter Avenne
p3219
aVDean Stunner
p3220
aVMr. Hazenplug
p3221
aVMiss Nancrede
p3222
aVMiss Benedict
p3223
aVRobert
p3224
aVMiss Howe
p3225
aVMiss Gernon
p3226
aVHamilton
p3227
aVMiss
p3228
aVPolk
p3229
aVMr. William Kent
p3230
aVMather Street
p3231
aVMr. Kent
p3232
aVMurray
p3233
aVDante
p3234
aVMr. Kolacek
p3235
aVMiss
p3236
aVVan
p3237
aVVaart
p3238
aVGraaham R. Taylor
p3239
aVMiss
p3240
aVEmily Balch
p3241
aVMiss
p3242
aVFrances Kellor
p3243
aVMr. Myron Adams
p3244
aVMiss
p3245
aVMiss Helen Culver
p3246
aVMr. Chas
p3247
aVMiss
p3248
aVMary Rozet Smith
p3249
aVMr. Edward
p3250
aVMr. Allen
p3251
aVMiss Jane Addams
p3252
aVAlfred L. Baker
p3253
aVEdgar A. Bancroft
p3254
aVFrederick H. Deknatel
p3255
aVAlice Hamilton
p3256
aVHarry Hart
p3257
aVJulia C. Lathrop
p3258
aVJulius Rosenwald
p3259
aVFrederick W. Burlingham
p3260
aVAlexander
p3261
aVMcCormick
p3262
aVChairman
p3263
aVMr. Charles J
p3264
aVHull
p3265
aVMiss Starr
p3266
aVDante
p3267
aVMiss
p3268
aVClara Landsberry
p3269
aVMiss
p3270
aVAddams
p3271
aVMiss
p3272
aVGrace Abbott
p3273
aVMr. Silsby
p3274
aVMr. Edward Burchard
p3275
aVMiss
p3276
aVGrace Abbott
p3277
aVMiss Landsberg
p3278
aVDavid
p3279
aVBrosnahan
p3280
aVMiss Sorenson
p3281
aVMiss Susanna Sorenson
p3282
aVMr. Novick
p3283
aVMr. Giuseppe Montenegro
p3284
aVMr. Hazenplug
p3285
aVHerr Franz Schmall
p3286
aVMiss
p3287
aVMiss
p3288
aVMiss Prindiville
p3289
aVMr. Carl Lindin
p3290
aVMr. Haag
p3291
aVMiss Addams
p3292
aVShamus O'Brien
p3293
aVMr. Fernando Jones
p3294
aVSamuel Greeley
p3295
aVOld Settler
p3296
aVYoung
p3297
aVJohn Miller Treasurer George Leddy
p3298
aVCohn Mgr
p3299
aVAthletics Louis La
p3300
aVNick Dire
p3301
aVGeorge Washington
p3302
aVMr. Alexander
p3303
aVTaft
p3304
aVMr. Tonsey
p3305
aVMr. Gilyeat
p3306
aVMr. White
p3307
aVMr. Colby
p3308
aVMr. Gilveat
p3309
aVMr. Blagg
p3310
aVMr. Howard
p3311
aVMr. Silsby
p3312
aVMr. Mulligan
p3313
aVMr. McKaye
p3314
aVMiss
p3315
aVMiss Katherin
p3316
aVMr. John Colovos
p3317
aVCampbell
p3318
aVMiss Neukom
p3319
aVSignor
p3320
aVDante
p3321
aVSignor Alfonso De Salinco
p3322
aVDonne Stallone Was
p3323
aVMiss Virginia
p3324
aVMiss Louise Zerr
p3325
aVPatrick
p3326
aVEnrico Ferraro
p3327
aVSignora
p3328
aVFerraro
p3329
aVCesar Lombroso
p3330
aVMiss Mary McArthur
p3331
aVMiss May Morris
p3332
aVWilliam Morris
p3333
aVMiss
p3334
aVMorris
p3335
aVStewart
p3336
aVAnna
p3337
aVMr. Lewis Hine
p3338
aVMarchesa
p3339
aVFrau
p3340
aVMarie Strict
p3341
aVBaroness
p3342
aVFru Krovh
p3343
aVJohnny Hand
p3344
aVPatrick
p3345
aVMr. Baldwin
p3346
aVMardi
p3347
aVSignor Valerio
p3348
aVMr. Tomlins
p3349
aVGyles
p3350
aVMr. E.
p3351
aVAlbert Clausson
p3352
aVJames Murphy
p3353
aVJohn McManus
p3354
aVMichael
p3355
aVEdward Patera
p3356
aVFrank McLoughlin
p3357
aVBert Peary
p3358
aVThomas Burnett
p3359
aVEdward Otis
p3360
aVCharles Wolf
p3361
aVAl Behr
p3362
aVLouis Labow
p3363
aVJacob Rodkin
p3364
aVShakespeare
p3365
aVJohn
p3366
aVTennyson
p3367
aVJoseph
p3368
aVShakespeare
p3369
aVMr. Floyd Dell
p3370
aVMiss Eleanor Smith
p3371
aVMiss Barrows
p3372
aVSignor Frederic Amato
p3373
aVGordon
p3374
aVHertzel Ladies
p3375
aVMae Campbell-Brenan
p3376
aVMr. Walter J. Frazier
p3377
aVLady Windermere
p3378
aVMiss
p3379
aVMr. R.
p3380
aVMary
p3381
aVMary Crane Nursery
p3382
aVSachs
p3383
aVMiss Starr
p3384
aVMiss Large
p3385
aVPolk
p3386
aVMr. William Kent
p3387
aVMather
p3388
aVMurray
p3389
aVMr. Kent
p3390
aVMiss Kathryn Chase
p3391
aVMiss Clara Emrnerick
p3392
aVMiss Kate Mathews
p3393
aVMr. J. Eads How
p3394
aVMr. Kelin
p3395
aVMr. Kolacek
p3396
aVMiss
p3397
aVElizabeth Crowell
p3398
aVHamilton
p3399
aVMiss Neukom
p3400
aVMiss Grace Abbott
p3401
aVJames A. Britton
p3402
aVLegler
p3403
aVMr. Robert Hunter
p3404
aVMiss Howe
p3405
aVMiss Gernon
p3406
aVHamilton
p3407
aVMiss
p3408
aVMiss Elsie Lund
p3409
aVHealth Department Miss Elsie Smith
p3410
aVMiss Edith Abbott
p3411
aVMiss Lucia
p3412
aVMr. Riddle
p3413
aVMiss
p3414
aVGrace Abbott
p3415
aVMiss Lathrop
p3416
aVWilliam Healey
p3417
aVMiss Fernald
p3418
aVJames A. Britton
p3419
aVMiss Binford
p3420
aVMiss McCormick
p3421
aVMr. A.A. Fisk
p3422
aVCharles F. Beals
p3423
aVMiss Breckinridge
p3424
aVMiss Abbott
p3425
aVMr. E.
p3426
aVBurchard
p3427
aVMr. Charles J
p3428
aVHull
p3429
aVCount Tolstoy
p3430
aVMr. Jerome Raymon
p3431
aVMiss Starr
p3432
aVDante
p3433
aVMr. Richardson
p3434
aVMiss
p3435
aVClara Landsberg
p3436
aVMiss Ethel Dewey
p3437
aVBrosnahan
p3438
aVMiss Sorenson
p3439
aVMiss Susanna Sorenson
p3440
aVAskov
p3441
aVMr. Giuseppe
p3442
aVHerr Franz Schmall
p3443
aVMiss
p3444
aVStarrs Bindery
p3445
aVMiss Starr
p3446
aVMiss
p3447
aVMary Preston
p3448
aVMiss
p3449
aVDavid
p3450
aVMiss
p3451
aVEmily Edwards
p3452
aVStevens
p3453
aVMiss Addams
p3454
aVShamus O'Brien
p3455
aVDavid
p3456
aVUrie
p3457
aVLinden
p3458
aVMr. Moler
p3459
aVFrank
p3460
aVTony Trelka
p3461
aVMr. Steers
p3462
aVMr. Sylvester
p3463
aVMr. Thorpe
p3464
aVMr. Mills
p3465
aVMr. Johnson
p3466
aVMr. Linden
p3467
aVMr. Johnson
p3468
aVFather Pegaas
p3469
aVDonne Italiane Was
p3470
aVCharles P. Schwartz
p3471
aVMr. Wm
p3472
aVMarie Hansen
p3473
aVMr. Tomlins
p3474
aVAlbert Clausson
p3475
aVJames Murphy
p3476
aVJohn McManus
p3477
aVMichael O'Connell
p3478
aVEdward Patera
p3479
aVFrank McLaughlin
p3480
aVBert Peary
p3481
aVThomas Burnett
p3482
aVMiss
p3483
aVGyles
p3484
aVMr. Norton
p3485
aVGillette
p3486
aVMiss Louise Zerr
p3487
aVMiss
p3488
aVBensinger
p3489
aVMiss Mary Smith
p3490
aVGogol
p3491
aVMiss Nancrede
p3492
aVHeart
p3493
aVLady Gregory
p3494
aVYarros
p3495
aVEldorado
p3496
aVMiss Hall
p3497
aVJarley
p3498
aVYoung
p3499
aVDirector
p3500
aVMiss
p3501
aVMiss Hopkins
p3502
aVIda
p3503
aVMiss Ratcliffe
p3504
aVUrie
p3505
aVEsther
p3506
aVBernard Shaw
p3507
aVMoliere
p3508
aVMiss Foran
p3509
aVMiss Nancrede
p3510
aVShakespear
p3511
aVBradner
p3512
aVSmith
p3513
aVAbdul Baha
p3514
aVLincoln
p3515
aVLincoln
p3516
aVMiss Loiuse Zerr
p3517
aVMiss Nancrede
p3518
aVPatrick
p3519
aVJonny Hand
p3520
aVMardi
p3521
aVMiss Mary Sullivan
p3522
aVMiss Mary Kelly
p3523
aVMiss Waite
p3524
aVMiss Eleanor Smith
p3525
aVMiss Hannig
p3526
aVMiss Eleanor Smith
p3527
aVMiss Benedict
p3528
aVMiss Nancrede
p3529
aVMr. Hazenplug
p3530
aVFather Time
p3531
aVMasque
p3532
aVMr. Alfred
p3533
aVGrieg
p3534
aVMendelssohn
p3535
aVMiss
p3536
aVMiss LeFevre
p3537
aVGalsworthy
p3538
aVLady Gregory
p3539
aVSynge
p3540
aVGalsworthy
p3541
aVPinero
p3542
aVLeroy Scott
p3543
aVHilda Satt
p3544
aVMr. John Galsworthy
p3545
aVMasefield
p3546
aVNan
p3547
aVMiss Barrows
p3548
aVSophocles
p3549
aVSignor Frederic Amato
p3550
aVGordon
p3551
aVShakespeare
p3552
aVJohn
p3553
aVTennyson
p3554
aVJoseph
p3555
aVShakespeare
p3556
aVHauptmann
p3557
aVGogol
p3558
aVJack Frost
p3559
aVMiss Edith Blair
p3560
aVMiss Blair
p3561
aVMiss Foran
p3562
aVMiss Bull
p3563
aVWinnetka
p3564
aVArden Shore
p3565
aVJoseph
p3566
aVJoseph T. Bown
p3567
aVBowen
p3568
aVOrrea W. Lansingh
p3569
aVMiss Mary Rozet Smith
p3570
aVMiss Wald
p3571
aVMiss Colvin
p3572
aVMr. Rosenwald
p3573
aVJulius Rosenwald
p3574
aVLaura Addams
p3575
aVMiss
p3576
aVMr. Bowen
p3577
aVMr. Colvin
p3578
aVMiss Hunt
p3579
aVAndrew Gabriel
p3580
aVMr. R.
p3581
aVMary
p3582
aVMr. William Kent
p3583
aVOfficer Murray
p3584
aVAndrew Jackson School
p3585
aVAndrew Jackson School
p3586
aVMiss Howe
p3587
aVMiss Gernon
p3588
aVHamilton
p3589
aVHamilton
p3590
aVJames A. Britton
p3591
aVHealth Department Miss Elsie Smith
p3592
aVUrie
p3593
aVMisc Edith Abbott
p3594
aVMiss Lucia
p3595
aVMary Preston
p3596
aVMiss
p3597
aVGrace Abbott
p3598
aVJames A
p3599
aVMiss
p3600
aVAndrew Jackson School
p3601
aVMiss Breckinridge
p3602
aVMiss Abbott
p3603
aVHalsted Street
p3604
aVGilpin Place
p3605
aVMr. Charles J
p3606
aVHull
p3607
aVMiss Starr
p3608
aVDante
p3609
aVMr. Richardson
p3610
aVMiss
p3611
aVClara Landsberg
p3612
aVMiss Ethel Dewey
p3613
aVBenvenuto Cellini
p3614
aVJokai
p3615
aVCervantes
p3616
aVDon Quixote
p3617
aVStephen Phillips
p3618
aVBordeaux
p3619
aVCharles Lamb
p3620
aVTolstoy
p3621
aVGoethe
p3622
aVWilhelm Meister
p3623
aVHardy
p3624
aVJane Austen
p3625
aVJohnson
p3626
aVSteiner
p3627
aVRichardson
p3628
aVRichardson
p3629
aVYarros
p3630
aVMr. NV
p3631
aVDavid
p3632
aVBrosnahan
p3633
aVMiss Sorenson
p3634
aVMiss Susanna Sorenson
p3635
aVAskov
p3636
aVMr. Giuseppe
p3637
aVMr. Franz Schmall
p3638
aVMiss
p3639
aVStarrs Bindery
p3640
aVMiss Starr
p3641
aVNorman Weston
p3642
aVMr. Frank Keyser
p3643
aVIss Vasilike Vaitses
p3644
aVSperos Vorres
p3645
aVBill Hallas
p3646
aVNicholas Alexander
p3647
aVPsychagoikos
p3648
aVMiss
p3649
aVStarr
p3650
aVIsadore Gordon
p3651
aVMiss Helen Campbell
p3652
aVMr. Snell
p3653
aVMr. Charles Schwartz
p3654
aVGeorge Isharn
p3655
aVVaart
p3656
aVMiss Cowan
p3657
aVMaftirdv
p3658
aVMiss Chord
p3659
aVMr. McMcnany
p3660
aVMiss Rhinchart
p3661
aVMiss Blake
p3662
aVMr. S.
p3663
aVMiss
p3664
aVEmily Edwards
p3665
aVMiss Eleanor Smith
p3666
aVMiss Hannig
p3667
aVMiss Eleanor Smith
p3668
aVStraus
p3669
aVMiss
p3670
aVAmalie Hannig
p3671
aVMiss Gertrude Smith
p3672
aVMiss
p3673
aVMiss
p3674
aVWoollett
p3675
aVMiss
p3676
aVMiss Eleanor Smith
p3677
aVCarl Reinecke
p3678
aVSnow White
p3679
aVReinecke
p3680
aVMiss Foulke
p3681
aVMiss Nancrede
p3682
aVMiss Benedict
p3683
aVMiss Eleanor Smith
p3684
aVMr. Alfred
p3685
aVMozart
p3686
aVGrieg
p3687
aVAlfred B. Yeomans
p3688
aVAlzina P. Stevens Linen Chest
p3689
aVStevens
p3690
aVYoung
p3691
aVPle
p3692
aVMr. A. Ray Carpenter
p3693
aVMiss Addams
p3694
aVShamus O'Brien
p3695
aVMiss
p3696
aVAddams
p3697
aVBou
p3698
aVMr. Steers
p3699
aVMr. Sylvester
p3700
aVPaw Paw
p3701
aVMr. Toinlins
p3702
aVAlbert Clansson
p3703
aVJames
p3704
aVMiss
p3705
aVRose M. Gyles
p3706
aVMiss
p3707
aVGyles
p3708
aVMr. R.
p3709
aVMr. Henry
p3710
aVMr. Robert
p3711
aVMr. E.
p3712
aVMr. Norton
p3713
aVMr. Norman Weston
p3714
aVMiss Gyles
p3715
aVMiss Nellie Lothrop
p3716
aVSpearos
p3717
aVMiss Neva
p3718
aVMiss Lea Taylor
p3719
aVAdelphia
p3720
aVMiss Stella Jones
p3721
aVAmo
p3722
aVMargaret Cameron
p3723
aVArthur Shirley
p3724
aVMiss Pauline Goodrow
p3725
aVSarah Crewe
p3726
aVFrances Hodgson Burnett
p3727
aVEldorado
p3728
aVBrown
p3729
aVElmo
p3730
aVGirl
p3731
aVWillard Edwards
p3732
aVMiss Lydia Pagel
p3733
aVHelen O'Donnell
p3734
aVIda
p3735
aVKismet
p3736
aVMr. Leslie Hurwitz
p3737
aVPapillons
p3738
aVMiss
p3739
aVVasilike Vaitses
p3740
aVMiss Isabel Dwight
p3741
aVWanda
p3742
aVCrane Company
p3743
aVMiss
p3744
aVMary Lindsay
p3745
aVMiss Amzlia Farbieczewski
p3746
aVMiss Adena Miller
p3747
aVMr. John Urie
p3748
aVMiss Laura Elliot
p3749
aVMiss
p3750
aVStarr
p3751
aVMardi
p3752
aVBeficenza
p3753
aVDonne Italiane
p3754
aVMiss Edith Blair
p3755
aVMiss Blair
p3756
aVMiss Crane
p3757
aVLady Aberdeen
p3758
aVShakespeare
p3759
aVTolstoy
p3760
aVKatinka
p3761
aVEsban
p3762
aVWilliam Shakespeare
p3763
aVMendelssohn
p3764
aVWilliam Shakespeare
p3765
aVKatinka
p3766
aVSnow White
p3767
aVMiss Weston
p3768
aVMiss Marguerite
p3769
aVMiss Lydia Grinker
p3770
aVPinocchio
p3771
aVMiss Nancredc
p3772
aVGranville Barker
p3773
aVLawrence Housman
p3774
aVWilliam Shakespeare
p3775
aVWilliam Shakespeare
p3776
aVWilliam Shakespeare
p3777
aVWilliam Shakespeare
p3778
aVHeart
p3779
aVBernard Shaw
p3780
aVEdward
p3781
aVMiss Mary Rozet Smith
p3782
aVJohn
p3783
aVTennyson
p3784
aVJoseph
p3785
aVShakespeare
p3786
aVHauptmann
p3787
aVGogol
p3788
aVJohn Galsworthy
p3789
aVMiss Barrows
p3790
aVSophocles
p3791
aVSignor Frederic Amato
p3792
aVGordon
p3793
aVAndrew Gabriel
p3794
aVAliss Mary Sullivan
p3795
aVAliss Mary Kelly
p3796
aVAliss Waite
p3797
aVMiss
p3798
aVMiss LeFeyre
p3799
aVGilpin Place
p3800
aVMary
p3801
aVMr. William Kent
p3802
aVOfficer Murray
p3803
aVAndrew Jackson School
p3804
aVAndrew Jackson School
p3805
aVJoseph T. Bowen
p3806
aVBowen
p3807
aVOrrea W. Lansingh
p3808
aVMiss Mary Rozet Smith
p3809
aVJulius Rosenwald
p3810
aVMiss Wald
p3811
aVWeston
p3812
aVMiss Blair
p3813
aVMiss Helen Culver
p3814
aVMr. Lansingh
p3815
aVWill
p3816
aVMr. Chamberlain
p3817
aVMiss Lund
p3818
aVMiss Praeger
p3819
aVMiss Rood
p3820
aVMiss Lynn
p3821
aVMiss Brown
p3822
aVMr. Frank Keyser
p3823
aVKeyser
p3824
aVMr. Keyser
p3825
aVIlic
p3826
aVMiss Starr
p3827
aVMiss Starr
p3828
aVMiss Starr
p3829
aVMiss Hove
p3830
aVMiss Gernon
p3831
aVHamilton
p3832
aVMiss Preston
p3833
aVWidow
p3834
aVMiss
p3835
aVGrace Abbott
p3836
aVMiss Valises
p3837
aVMiss
p3838
aVMiss Jessie
p3839
aVGilpin Place
p3840
aVMiss Wilkins
p3841
aVMiss Ransom
p3842
aVGraham Taylor
p3843
aVMiss Julia
p3844
aVMiss Davis
p3845
aVMiss Preston
p3846
aVWendell
p3847
aVDean Walter
p3848
aVPeter
p3849
aVBishop Sumner
p3850
aVMadame Schwimmer
p3851
aVMiss Addams
p3852
aVAletta Jacobs
p3853
aVMiss Addams
p3854
aVMiss Grace Abbott
p3855
aVBreckinridge
p3856
aVMiss Hamilton
p3857
aVMiss Addams
p3858
aVHamilton
p3859
aVSide Shelters
p3860
aVMiss Howe
p3861
aVMiss Ella Boynton
p3862
aVMiss Bartlett
p3863
aVAddams
p3864
aVLathrop
p3865
aVAddams
p3866
aVMiss Brown
p3867
aVMiss Brown
p3868
aVMiss Bevans
p3869
aVGuiseppe Vecchione
p3870
aVMiss Harriet Monroe
p3871
aVMiss Nancrecle
p3872
aVFrancis
p3873
aVMIss Enid Stacey
p3874
aVMiss Jordon
p3875
aVMiss Mabel Hay Barrows
p3876
aVMiss Gertrude Smith
p3877
aVBradner Smith
p3878
aVMiss Addams
p3879
aVMiss Hazard
p3880
aVMisses Benedict
p3881
aVMiss Elsie Smith
p3882
aVAddams
p3883
aVMiss Benedict
p3884
aVMiss Addams
p3885
aVMiss Elsie Smith
p3886
aVMiss Binford
p3887
aVProfessor Josiah Royce
p3888
aVProfessor Paul Shorey
p3889
aVMiss Helen Culver
p3890
aVMiss Culver
p3891
aVMiss Hinman
p3892
aVBradner Smith
p3893
aVMarks Nathan
p3894
aVMiss Jennie Dow
p3895
aVMiss Grace Murphy
p3896
aVMiss Harniet Hayward
p3897
aVMiss Lathrop
p3898
aVLathrop
p3899
aVMiss Leslie
p3900
aVMiss Leslie
p3901
aVMiss Bensinger
p3902
aVMiss Hinman
p3903
aVMarks Nathan
p3904
aVElizabeth
p3905
aVProfessor Graham Taylor
p3906
aVMiss Uchtman
p3907
aVMiss Mathews
p3908
aVMiss Elsie Mulligan
p3909
aVMiss Courtright
p3910
aVMiss Grace Murphy
p3911
aVrLady Gregory
p3912
aVMiss Fisher
p3913
aVMIss Dai Smith
p3914
aVJoseph
p3915
aVMiss Elizabeth
p3916
aVMiss Myra Brockett
p3917
aVMiss Loring
p3918
aVElizabeth
p3919
aVMiss Kathryn
p3920
aVProfessor Graham Taylor
p3921
aVMiss Dewey
p3922
aVMiss Davis
p3923
aVElizabeth
p3924
aVMiss Benedict
p3925
aVPaw Paw
p3926
aVMiss Pauline Strode
p3927
aVMiss Jennie Fattcliff
p3928
aVMiss Adena Miller
p3929
aVMiss Hannig
p3930
aVMiss Augusta Gottlieb
p3931
aVMiss Robinson
p3932
aVMiss Fisher
p3933
aVJoseph
p3934
aVMiss Nancrede
p3935
aVMiss Katharine Shortall
p3936
aVMiss Augusta Gottlieb
p3937
aVMiss Lillian Cornish
p3938
aVMiss Frances Shea
p3939
aVMiss Grace Murphy
p3940
aVElizabeth
p3941
aVMisses Colvin
p3942
aVMiss Thora Lund
p3943
aVProfessor Graham Taylor
p3944
aa.