(lp1
(lp2
VArctomys Miurus
p3
aVTeachers
p4
aVSocial Economy
p5
aVColumbia University
p6
aVCapital Letters
p7
aVProductive Department
p8
aVConsuming Department
p9
aVScientific Bulletin
p10
aVOzarks
p11
aVMasses
p12
aVMASSESE
p13
aVMONTHLY
p14
aVMAGAZINE
p15
aVPEOPLE
p16
aVMasses
p17
aVBusiness
p18
aVSocialist Party
p19
aVCOMMODITY
p20
aVMARKET
p21
aVMASSES
p22
aVMONTHLY
p23
aVTHE
p24
aVLittle Sisters
p25
aVRiverside Drive
p26
aVTHE
p27
aVMASSES
p28
aVWiedersehen
p29
aVLENA
p30
aVMasses
p31
aVMasses
p32
aVMasses
p33
aVMasses
p34
aVMasses
p35
aVCooperatie Commonwealth
p36
aVMasses
p37
aVCooperative
p38
aVCooperative
p39
aVLadies Home
p40
aVRevolution
p41
aVRevolution
p42
aVPurchasers
p43
aVMasses
p44
aVPurchasers
p45
aVPurchasers
p46
aVPurchasers
p47
aVLeague
p48
aVPurchasers
p49
aVDream
p50
aVCabinet Officers
p51
aVCensus
p52
aVVII Census
p53
aVCensus
p54
aVCensus
p55
aVCompetition
p56
aVHOUSEWIVES
p57
aVMasses H0
p58
aVHateld
p59
aVPwrale
p60
aVWE
p61
aVTHE
p62
aVInterpretations Truth
p63
aVSun
p64
aVGeneral Federation
p65
aVClubs
p66
aVMasses
p67
aVMasses
p68
aVTHE MASSES
p69
aVMASSES
p70
aVTHE Masses
p71
aVMASSES
p72
aVSwell
p73
aVCLIPPERS
p74
aVCoupon Clippers
p75
aVPelmont
p76
aVPublic Coupon Clippers
p77
aVCharity Ball
p78
aVJurassic
p79
aVAmalgamated Firearms
p80
aVAmalgamated
p81
aVUniversity
p82
aVLondon Graphic
p83
aVBusiness
p84
aVSocialist Young Guard
p85
aVYoung Guard
p86
aVSocialist Cadets
p87
aVMasses
p88
aVCooperative Commonwealth
p89
aVCooperative
p90
aVPurchasers
p91
aVCooperative
p92
aVMasses
p93
aVMARS
p94
aVSEES
p95
aVABC
p96
aVBANG
p97
aVFort Platte
p98
aVCommandant
p99
aVLaborites
p100
aVLabour Party
p101
aVGREAT
p102
aVMADONNAS
p103
aVARE
p104
aVAnarchist
p105
aVBowery
p106
aVWalpurgis
p107
aVLyceum
p108
aVLyceum
p109
aVWalpurgis
p110
aVHall
p111
aVWoman Rebel
p112
aVNo Masters
p113
aVWoman Rebel
p114
aVAnarchist Almanac
p115
aVWoman Rebel
p116
aVOccidental
p117
aVFederal Commission
p118
aVIndustrial Affairs
p119
aVInternational Child Welfare League
p120
aVNational Manufacturers
p121
aVSanger For
p122
aVWoman Rebel
p123
aVMasses
p124
aVTHE
p125
aVTRUTH
p126
aVPost
p127
aVWoman Rebel
p128
aVPost
p129
aVWoman Rebel
p130
aVSpecial Sessions
p131
aVSt. George
p132
aVFinchley
p133
aVLeague
p134
aVRoad
p135
aVFederal
p136
aVWeekly
p137
aVBook Store
p138
aVMasses
p139
aVIndustrial Commission
p140
aVCatholic Church
p141
aVAN
p142
aVGOVERNMENT
p143
aVBusiness
p144
aVMasses
p145
aVSanger Fund
p146
aVMasses Publishing Company
p147
aVMASSES
p148
aVHague
p149
aVHague
p150
aVPhysical Culture Magazine
p151
aVFederal
p152
aVCatholic Societies
p153
aVBook
p154
aVControl
p155
aVBirth Control League
p156
aVBirth Control League
p157
aVBirth Control League
p158
aVSanger Fund
p159
aVMasses
p160
aVMasses Enclosed
p161
aVSangers
p162
aVInternational Studio
p163
aVSanger Fund
p164
aVSanger Fund
p165
aVMasses Publishing Company
p166
aVLimitation
p167
aVZealanders
p168
aVMander
p169
aVRevolution
p170
aVWalter Loan Case
p171
aVMasses
p172
aVSangers
p173
aVQuinlan
p174
aVSangers
p175
aVSocialists
p176
aVAssistant United States
p177
aVCompany
p178
aVBirthControl
p179
aVMassesor
p180
aVEconomic Review
p181
aVEncyclopaedia Britanniea
p182
aVLondon Times
p183
aVTHE
p184
aVMASSES
p185
aVTHE
p186
aVMASSES
p187
aVGeneral Sessions
p188
aVSea
p189
aVSUFFRAGE
p190
aVNational Association
p191
aVHohenzollern
p192
aVAT
p193
aVMADGE
p194
aVYOU
p195
aVTHE
p196
aVMAsses
p197
aVMASSES
p198
aVWoman Suffrage Party
p199
aVCatholic Votes
p200
aVWomans Magazine
p201
aVSpecial Sessions
p202
aVEllis
p203
aVTHE Massesof
p204
aVTHE Masses
p205
aVIndustrial Relations Commission
p206
aVCommission
p207
aVAcademic Truth
p208
aVMilitant Altruist
p209
aVFord
p210
aVFord
p211
aVMerchants
p212
aVManufacturers
p213
aVTHE National Birth Control League
p214
aVAnarchist
p215
aVBirth Control League
p216
aVGOLDMAN
p217
aVDEFENSE
p218
aVCandler Theatre
p219
aVDefense
p220
aVDepartment
p221
aVResolutions Committee
p222
aVFederal Amendment
p223
aVCongressional Union
p224
aVDemocratic Committee
p225
aVAmerican Union
p226
aVWorld Federation
p227
aVRIGHTS
p228
aVInternational Commission
p229
aVOriental
p230
aVAssociation
p231
aVCongress
p232
aVDistrict
p233
aVAmendment
p234
aVConstitution
p235
aVCommittee
p236
aVIndustrial Relations
p237
aVDemocratic National Convention
p238
aVCommission
p239
aVIndustrial Relations
p240
aVDemocratic Party
p241
aVMagazine
p242
aVGiaconda
p243
aVJustice
p244
aVJustice
p245
aVGeneral Sessions
p246
aVRauh
p247
aVAmerican Public Health Association
p248
aVWomens City Club
p249
aVBirth Control
p250
aVBirth Control Review
p251
aVTHE
p252
aVMASSES
p253
aVOhio Birth Control League
p254
aVReview
p255
aVEnglish Review
p256
aVReform Club
p257
aVCommittee
p258
aVCommittee
p259
aVLabor
p260
aVCommittee
p261
aVAmerican
p262
aVLicences Bell
p263
aVMasses
p264
aVSexual Crisis
p265
aVSOCIETY
p266
aVSuffragist
p267
aVNational Birth Control
p268
aVNOW
p269
aVAUGUST
p270
aVMagna
p271
aVMother Country
p272
aVCollege Bulletin
p273
aVPoverty Center
p274
aVPoverty Center
p275
aVHarvard
p276
aVHarvard
p277
aVWomans College
p278
aVGeorge H. Doran Company
p279
aVSuffrage Times
p280
aVBirth Control Leagues
p281
aVBirth Control Education
p282
aa(lp283
VEdward T. Devine
p284
aVMr.
p285
aVMr. Man
p286
aVDevine
p287
aVMr. Man
p288
aVDevine
p289
aVDevine
p290
aVMother Eve
p291
aVLoeb
p292
aVKey West
p293
aVMan
p294
aVIll
p295
aVManager
p296
aVMass
p297
aVMr.
p298
aVFischer
p299
aVAlice
p300
aVLawyer Brown
p301
aVPoet Jones
p302
aVMaster Talent
p303
aVStaley
p304
aVStaley
p305
aVBilly Carsoning
p306
aVAlice
p307
aVStaley
p308
aVStaleys
p309
aVStaley
p310
aVDearie
p311
aVStaley
p312
aVStaley
p313
aVBilly Carsoner
p314
aVStaley
p315
aVStaley
p316
aVMiss Alice
p317
aVVincennes
p318
aVGreat Policeman
p319
aVPull
p320
aVStaley
p321
aVStaley
p322
aVStaley
p323
aVMary
p324
aVAlice
p325
aVMr. Staley
p326
aVDoor
p327
aVStaley
p328
aVMary
p329
aVVincennes
p330
aVStaley
p331
aVMr. Staley
p332
aVDearie
p333
aVAuf
p334
aVBilly Carsoning
p335
aVBilly Carsoning
p336
aVBilly Carsonings
p337
aVLester F. Ward
p338
aVPiet Vlag
p339
aVThou
p340
aVGeorge D. Herron
p341
aVJosephine Conger Kaneko Mirah
p342
aVMirah
p343
aVMirah
p344
aVMirah
p345
aVMirah
p346
aVJames
p347
aVJames
p348
aVJames
p349
aVMirah
p350
aVJames
p351
aVJames
p352
aVJames
p353
aVJames
p354
aVMirah
p355
aVJames
p356
aVMirah
p357
aVJames
p358
aVJames
p359
aVMirah
p360
aVMirah
p361
aVCarl
p362
aVDelve
p363
aVBrother
p364
aVPriest How
p365
aVDown
p366
aVSend
p367
aVThou
p368
aVWilby Heard
p369
aVJohn
p370
aVJohn
p371
aVJohn
p372
aVJohn
p373
aVIll
p374
aVJohn
p375
aVJohn
p376
aVJohn
p377
aVJohn
p378
aVWilliams
p379
aVJohn
p380
aVJohn
p381
aVJohn
p382
aVWilliams
p383
aVJohn
p384
aVJohn
p385
aVMatthew Ruskin
p386
aVHow
p387
aVProfessor Sidney
p388
aVReeve
p389
aVSad
p390
aVBenjamin Keech
p391
aVArthur Dodge
p392
aVDora
p393
aVHatfield
p394
aVArthur
p395
aVArthur
p396
aVArthur
p397
aVDora
p398
aVDora
p399
aVDora
p400
aVDora
p401
aVDora
p402
aVMiss Hatfield
p403
aVHenry
p404
aVArthur
p405
aVDebs
p406
aVDora Hatfield
p407
aVArthur
p408
aVArthur
p409
aVDora
p410
aVDora
p411
aVArthur
p412
aVArthur Dodge
p413
aVDora
p414
aVArthur
p415
aVArthur
p416
aVArthur
p417
aVDora
p418
aVPer
p419
aVDora
p420
aVIlene
p421
aVMiss Hateld
p422
aVSad
p423
aVArthur
p424
aVArthur
p425
aVDora
p426
aVDora
p427
aVArthur
p428
aVLida Parce
p429
aVOlive
p430
aVRhcta Child Dorr
p431
aVEleanor Spence
p432
aVJanet Huxley
p433
aVIve
p434
aVJanet
p435
aVJanet Huxley
p436
aVRich Man
p437
aVEmanuel JULIUS No
p438
aVAlexander Irvine
p439
aVHorace Traubel
p440
aVIrvine
p441
aVCook
p442
aVHorace Traubel
p443
aVGrace Potter
p444
aVMan
p445
aVMan
p446
aVClergyman
p447
aVGood
p448
aVHetty Breen
p449
aVMr.
p450
aVThomas Fryan
p451
aVAndrew Arnegie
p452
aVJohn D. Dockerfeller
p453
aVAugie
p454
aVWilliam Canderbilt
p455
aVOr Greece
p456
aVTill
p457
aVHurry
p458
aVEleanor Wentworth Magdalene
p459
aVMagdalene
p460
aVMagdalene
p461
aVJesus
p462
aVMagdalene
p463
aVJesus
p464
aVMagdalene
p465
aVEthel Knapp
p466
aVMickey
p467
aVMickey
p468
aVBender
p469
aVMickey
p470
aVMickey
p471
aVMickey
p472
aVMickey
p473
aVMickey
p474
aVMickey
p475
aVHenry
p476
aVInez Haynes Gillmore
p477
aVRichard
p478
aVAdrian Hewitt
p479
aVMike
p480
aVMike
p481
aVTad Wilcox
p482
aVHenry Harwood
p483
aVMike Said
p484
aVAdrian Hewitt
p485
aVMike
p486
aVMike
p487
aVTad Wilcox
p488
aVTad
p489
aVTad
p490
aVMike
p491
aVTad
p492
aVHenry Harwood
p493
aVHenry
p494
aVAdrian Hewitt
p495
aVHarwood
p496
aVDiogenes
p497
aVHenry
p498
aVHenry
p499
aVHenry Harwood
p500
aVTad
p501
aVHenry
p502
aVAdrian Hewitt
p503
aVHenry
p504
aVMike
p505
aVTad Wilcox
p506
aVAdrian Hewitt
p507
aVTad
p508
aVTad
p509
aVTad
p510
aVAnita
p511
aVMike
p512
aVTad
p513
aVTad
p514
aVHenry
p515
aVHenry
p516
aVTad
p517
aVMike
p518
aVAdrian Hewitt
p519
aVTad
p520
aVAdrian Hewitt
p521
aVDiogenes
p522
aVHenry
p523
aVHarwood
p524
aVHewitt
p525
aVMike
p526
aVHarwood
p527
aVMike
p528
aVAdrian Hewitt
p529
aVHenry
p530
aVHarwood
p531
aVHenry
p532
aVHenry
p533
aVHenry
p534
aVHenry
p535
aVHenry
p536
aVMike
p537
aVHenry
p538
aVHenry
p539
aVDelehanty
p540
aVMike
p541
aVHenry
p542
aVHarwood
p543
aVMike
p544
aVTad
p545
aVTad
p546
aVTad
p547
aVMike
p548
aVMike
p549
aVHenry
p550
aVHenry
p551
aVHenry Harwood
p552
aVHarwood
p553
aVHarwood
p554
aVHenry
p555
aVMike
p556
aVMatilda Donne
p557
aVMatty
p558
aVHenry
p559
aVSeriph Four Corners
p560
aVMr. Wilcox
p561
aVTad
p562
aVMike
p563
aVMiss Donne
p564
aVAdrian Hewitt
p565
aVTad
p566
aVIda
p567
aVLeaton Smith
p568
aVSchaffner
p569
aVMarx
p570
aVMass
p571
aVMars
p572
aVMars
p573
aVGeorge Meredith
p574
aVElizabeth
p575
aVBanner
p576
aVWilson
p577
aVBolton Hall VOTES
p578
aVWimmin
p579
aVBarney
p580
aVJimmy O'Brine
p581
aVJimmy
p582
aVJimmy
p583
aVJimmy
p584
aVPat Malone
p585
aVPat
p586
aVPat
p587
aVJimmy
p588
aVGladstone
p589
aVSeymour
p590
aVBarnard Feminism
p591
aVMary
p592
aVMary
p593
aVPhiladelphia Millionaire
p594
aVFoible
p595
aVKatherine B. Davis
p596
aVDavis
p597
aVMiss Milliken
p598
aVAlbert Edwards
p599
aVBernard Shaw
p600
aVMr. Shaws
p601
aVMr. Shaw
p602
aVMaud
p603
aVNuttin
p604
aVAwhell
p605
aVAristotle
p606
aVMarital
p607
aVSir
p608
aVBolton
p609
aVSanger
p610
aVLucretius
p611
aVMargaret Sanger
p612
aVPaul Poiret
p613
aVVictory
p614
aVMiss Elizabeth Watson
p615
aVGarretson
p616
aVGeorge Brandes
p617
aVMargaret
p618
aVMargaret Sanger
p619
aVMargaret Sanger
p620
aVUtopian
p621
aVMax
p622
aVIsadora Duncan
p623
aVWilliam Sanger
p624
aVIsadora Duncan
p625
aVMargaret Sanger
p626
aVAnthony Comstock
p627
aVMargaret Sanger
p628
aVAnthony Comstock
p629
aVOrder
p630
aVMargaret Sanger
p631
aVSanger
p632
aVMargaret Sanger
p633
aVAnthony Comstock
p634
aVMargaret Sanger
p635
aVWilliam Sanger
p636
aVMr.
p637
aVSanger
p638
aVSanger
p639
aVAnthony Comstock
p640
aVMr.
p641
aVMr. Sanger
p642
aVMr. Sanger
p643
aVMr. Sanger
p644
aVMr. Comstock
p645
aVMr. Comstock
p646
aVMr.
p647
aVSanger
p648
aVMr. Comstock
p649
aVMr. Comstock
p650
aVMr. Sanger
p651
aVMr. Comstock
p652
aVMr. Sanger
p653
aVMr. Comstock
p654
aVMr. Sanger
p655
aVMr. Sanger
p656
aVGilbert
p657
aVMr. Sanger
p658
aVMargaret Sanger
p659
aVMr. Sanger
p660
aVMargaret Sanger
p661
aVWilliam Sanger
p662
aVMargaret Sanger
p663
aVMr.
p664
aVKind
p665
aVWandsworth
p666
aVHagar Revelly
p667
aVSanger
p668
aVHarper
p669
aVBouck
p670
aVBouck
p671
aVHarper
p672
aVNorman Hapgood
p673
aVJohn D.
p674
aVMother Jones
p675
aVElbert Hubbard
p676
aVGeorge Sylvester Viereck
p677
aVCecil Chesterton
p678
aVFrank J. Goodwin
p679
aVRainy
p680
aVBilly
p681
aVRobert G. Ingersoll
p682
aVBilly
p683
aVHoward
p684
aVBrubaker
p685
aVWilliam Sanger
p686
aVMr.
p687
aVSanger
p688
aVSanger Case
p689
aVJohn
p690
aVMr. Eastman
p691
aVMiriam E. Oatman
p692
aVMargaret Sanger
p693
aVMr. William Sanger
p694
aVAnthony Comstock
p695
aVMargaret Sagers
p696
aVMr. Sanger
p697
aVMr. Sanger
p698
aVSanger
p699
aVMr. Sanger
p700
aVElizabeth
p701
aVWaddell
p702
aVMr. Editor
p703
aVTom
p704
aVDick
p705
aVHarry
p706
aVSanger
p707
aVBernard
p708
aVRoman Catholic
p709
aVCorner
p710
aVPaul
p711
aVJessie Ashley
p712
aVMary Ware Dennett
p713
aVJames F. Morton
p714
aVWinthrop Lane
p715
aVFelix Grendon
p716
aVMary Ware Dennett
p717
aVSanger Case
p718
aVMr. Comstock
p719
aVMr. Moscowitz
p720
aVPhilip
p721
aVMr.
p722
aVRobinson
p723
aVPioneerr
p724
aVWillion J. Robinson
p725
aVRobinson
p726
aVRobinson
p727
aVRobinson
p728
aVClara G. Stillman
p729
aVJames F. Morton
p730
aVEdwin C. Walker
p731
aVJacobi
p732
aVJames P. Warbasse
p733
aVMr. Sanger
p734
aVMr. Sanger
p735
aVMr. Sanger
p736
aVJane
p737
aVMargaret Sanger
p738
aVMr. Sanger
p739
aVWalter G. Loan
p740
aVThomas Patterson
p741
aVJoseph
p742
aVWood St.
p743
aVElsie
p744
aVClews Parsons
p745
aVJeffery Martin
p746
aVFrank Tannenbaum
p747
aVMartin
p748
aVStanton
p749
aVTanenbaum
p750
aVFrance
p751
aVWilliam
p752
aVRose Benet The Jones Family Group
p753
aVMr. Jones
p754
aVMax Eastman
p755
aVAugust Forel
p756
aVRebman
p757
aVHarper
p758
aVRobert Owen
p759
aVFrancis Place
p760
aVRobert Owen
p761
aVJames
p762
aVMill
p763
aVBill Stinger
p764
aVJames Mill
p765
aVJohn Stuart Mill
p766
aVJeremy Bentham
p767
aVFrancis Place
p768
aVGraham Wallets
p769
aVJames Bradlaugh
p770
aVWilliam J. Robinson
p771
aVWilliam Sanger
p772
aVGraham
p773
aVFrancis Place
p774
aVAlice Duer Miller
p775
aVCharlotte Perkins Gilman
p776
aVWillie
p777
aVMr.
p778
aVCarter
p779
aVAlice Duer
p780
aVMiller
p781
aVWilliam Sanger
p782
aVWilliam Sanger
p783
aVSanger
p784
aVWilliam
p785
aVSanger
p786
aVSanger
p787
aVCharles Bradlaugh
p788
aVAnnie Besant
p789
aVSwann
p790
aVWilliam Sanger
p791
aVMr.
p792
aVGilbert E. Roe
p793
aVSanger
p794
aVWilliam
p795
aVSanger
p796
aVLeonard
p797
aVAlmroth
p798
aVWright
p799
aVSir Almroth
p800
aVAiyu
p801
aVOkuni
p802
aVJames
p803
aVCardinal Gibbons
p804
aVStalwart
p805
aVMarched
p806
aVHardy
p807
aVGlad
p808
aVBlossoms
p809
aVBrother Wind
p810
aVSad
p811
aVTrees
p812
aVWide
p813
aVNeath Spreading
p814
aVStronger
p815
aVSine Ye
p816
aVWilkinson
p817
aVSocrates
p818
aVSugar
p819
aVSnips
p820
aVEverett P. Wheeler
p821
aVLouis
p822
aVHoward Brubaker
p823
aVZeppelin
p824
aVPussy
p825
aVCinderella
p826
aVFather William
p827
aVFather William
p828
aVWilliam My
p829
aVSimple Simon
p830
aVFlorence Nigtingale
p831
aVFlorence
p832
aVDickens
p833
aVFlorence Nightingale
p834
aVMiss
p835
aVNightingale
p836
aVMiss Nightingale
p837
aVMiss Nightengale
p838
aVEngland
p839
aVEngland
p840
aVHayti
p841
aVLeo Frank
p842
aVFrank
p843
aVJeannette
p844
aVEaton Too
p845
aVWilliam Sanger
p846
aVMr.
p847
aVSanger
p848
aVMr. Sanger
p849
aVMr. Sanger
p850
aVMr. Sanger
p851
aVSanger
p852
aVMargaret Sanger
p853
aVMr. Sanger
p854
aVMargaret Sanger
p855
aVSanger
p856
aVOregon Emma Goldman
p857
aVBen Reitman
p858
aVSomeone
p859
aVSanger
p860
aVColonel C.
p861
aVJudge W.
p862
aVMr.
p863
aVWilson
p864
aVMy Lady Bountiful
p865
aVLabor Men
p866
aVLives GOVERNOR JOHNSON
p867
aVSuhr
p868
aVJohnson
p869
aVSuhr
p870
aVGovernor Johnson
p871
aVEmma Goldman
p872
aVSanger
p873
aVEmma Goldman
p874
aVMiss
p875
aVGoldman
p876
aVEmma Goldman
p877
aVMargaret Sanger
p878
aVWalter
p879
aVAdolphe Roberts Birth Control
p880
aVEmma Goldman
p881
aVEmma Goldman
p882
aVEmma Goldman
p883
aVMiss Goldman
p884
aVEmma Goldman
p885
aVJohn Galsworthy
p886
aVYour Honor
p887
aVWilliam J. Robinson
p888
aVMargaret Sanger
p889
aVEmma Goldman
p890
aVEmma Goldman
p891
aVEmma Goldman
p892
aVRose
p893
aVPastor Stokes
p894
aVBen Reitman
p895
aVJessie Ashley
p896
aVIda Rauh
p897
aVBen Reitman
p898
aVJessie Ashley
p899
aVIda Rauh
p900
aVCame
p901
aVBarnard Successful
p902
aVRobinson
p903
aVMargaret Sanger
p904
aVSanger
p905
aVSanger
p906
aVSanger
p907
aVPercy
p908
aVStewert Kerr
p909
aVJessie Ashley
p910
aVMargaret Sanger
p911
aVIda Rauh
p912
aVMiss
p913
aVEmma Goldman
p914
aVWilson
p915
aVVan Kleek Allison
p916
aVAllison
p917
aVWadhams
p918
aVJessie
p919
aVMargaret Sanger
p920
aVFrederick A. Blossom
p921
aVInez Milholland
p922
aVInez Milholland
p923
aVInez Milholland
p924
aVMax Eastman
p925
aVMR. W.
p926
aVMr. George
p927
aVMr.
p928
aVGeorge
p929
aVMr. George
p930
aVMr.
p931
aVGeorge
p932
aVMr. George
p933
aVMr. George
p934
aVMr. George
p935
aVThrostein Veblen
p936
aVLloyd George
p937
aVEthel Byrnes Hunger Strike
p938
aVBurdette
p939
aVLewis
p940
aVEthey Byrne
p941
aVMargaret Sanger
p942
aVSanger
p943
aVSanger
p944
aVSanger
p945
aVSanger
p946
aVSanger
p947
aVBryce
p948
aVJohn S. Smner
p949
aVSumner
p950
aVForel
p951
aVSumnner
p952
aVMary Shaw
p953
aVWarren
p954
aVMary Shaw
p955
aVJane
p956
aVJohn S. Sumner
p957
aVWilliam J. Robinson
p958
aVWILSONS
p959
aVDudly Field Malone
p960
aVCollector
p961
aVWilson
p962
aVMr. Malone
p963
aVMr. Wilson
p964
aVKaiser
p965
aVWilson Have
p966
aVJOSEPHINE
p967
aVMerchant Robinson
p968
aVDuke
p969
aVDuke
p970
aVLost Heiress
p971
aVDoctor
p972
aVCOngressmen
p973
aVBENJAMIN
p974
aVDORA
p975
aVSchreiner
p976
aVWell Informed Proletarian
p977
aVConservator Horace Traubel
p978
aVGeneral Bluggymug
p979
aVMICKEY
p980
aVWonderful Lady
p981
aVWonderful Lady
p982
aVWonderful Lady
p983
aVHenry
p984
aVMike
p985
aVINEZ
p986
aVCleopatra
p987
aVCatherine
p988
aVFemale Fashions By Eugene Wood Author
p989
aVOld Boy
p990
aVMarth Washington
p991
aVPope
p992
aVJake
p993
aVComstock
p994
aVMitchell Kenerley
p995
aVBallinger
p996
aVComstock
p997
aVMargaret Sanger
p998
aVMargaret Sanger
p999
aVUPTON
p1000
aVComrade Sanger
p1001
aVShaw
p1002
aVClaraStillman
p1003
aVComstock
p1004
aVMargaret Ssanger
p1005
aVComstock Victim
p1006
aVComstock
p1007
aVSawyer
p1008
aVResident Doctor
p1009
aVStudent
p1010
aVComstock
p1011
aVComstock
p1012
aVMargaret Sanger
p1013
aVComstock
p1014
aVComstock
p1015
aVComstock
p1016
aVMcInerny
p1017
aVControl Havelock Ellis
p1018
aVMargaret Sanger
p1019
aVEMMA
p1020
aVHughes
p1021
aVProgress Inez Milholland
p1022
aVCommissioner
p1023
aVMargaret Sanger
p1024
aVCommissioner
p1025
aVCommissioner Bell
p1026
aVCommissioner Bell
p1027
aVCommissioner Bell
p1028
aVCommissioner Bell
p1029
aVSexual Life By C.W
p1030
aa.