(lp1
(lp2
VSMELL
p3
aVTerrible Tramp
p4
aVPlayboy
p5
aVTO
p6
aVSupreme Court
p7
aVAudubon
p8
aVRadical Women
p9
aVNEW
p10
aVNEW
p11
aVOUR
p12
aVFROM
p13
aVJeannette Rankin Brigade
p14
aVFree University
p15
aVCongress
p16
aVCongress
p17
aVPageant Players
p18
aVULTIMATE
p19
aVCongress
p20
aVLIFE
p21
aVLysistrata
p22
aVLiberation
p23
aVMiniskirt Caucus
p24
aVLiberation
p25
aVMiniskirt Caucus
p26
aVHUAC
p27
aVHER
p28
aVWBAI
p29
aVDemocratic Convention
p30
aVAmerican Revolution
p31
aVCURRENT
p32
aVNOTES Circulation
p33
aVSingle Girl
p34
aVMONTH Staughton Lynd National Guardian Article
p35
aVGeneral Council
p36
aVREDSTOCKINGS
p37
aVNEW
p38
aVWRM
p39
aVWRM
p40
aVWRM
p41
aVNational Labor Union Convention
p42
aVWRM
p43
aVSeneca Falls
p44
aVWRM
p45
aVWRM
p46
aVAtheneum
p47
aVWRM
p48
aVNOT
p49
aVSuffrage Association
p50
aVHALF
p51
aVARE
p52
aVNational Suffrage Association
p53
aVAmerican Suffrage Association
p54
aVKibbutz
p55
aVTOO
p56
aVSupreme Court
p57
aVNOT
p58
aVPenguin
p59
aVBoston University
p60
aVBronte
p61
aVSwallow Press
p62
aVReal Woman
p63
aVPagan Eros
p64
aVChristian Agape
p65
aVWham
p66
aVGreenwich Village
p67
aVPAT
p68
aVLiberation
p69
aVStandard American Housewife
p70
aVNew Commodity
p71
aVLiberation
p72
aVLiberation
p73
aVLITTLE
p74
aVRedbook
p75
aVRadical Feminism Radical
p76
aVVillage
p77
aVLiberation
p78
aVLiberation
p79
aVFemale Liberation
p80
aVSocial Revolution
p81
aVRadical Feminist
p82
aVLeft Debate Women
p83
aVCritic
p84
aVMovement Group
p85
aVAbortion Law
p86
aVCongress
p87
aVNew Feminist Theatre
p88
aVKate Millet Redstockings
p89
aVMaslers
p90
aVPockelbooks
p91
aVPockelbooks
p92
aVU.N.
p93
aVBitch
p94
aVLiberation
p95
aVSocial Revolution
p96
aVGIs
p97
aVMobilization Committee
p98
aVMobe
p99
aVNOW
p100
aVNational Organization
p101
aVMovement Group
p102
aVLiberation
p103
aVSCEF
p104
aVSCEF
p105
aVSCEF
p106
aVSCEF
p107
aVSCEF
p108
aVSCEF
p109
aVSCEF
p110
aVSCEF
p111
aVSCEF
p112
aVSCEF
p113
aVME
p114
aVSNCC
p115
aVWL
p116
aVSCEF
p117
aVSCEF
p118
aVWLM
p119
aVSCEF
p120
aVSCEF
p121
aVSCEF
p122
aVSCEF
p123
aVSCEF
p124
aVSCEF
p125
aVSCEF
p126
aVSCEF
p127
aVSCEF
p128
aVSCEF
p129
aVWL
p130
aVWLM
p131
aVSCEF
p132
aVBAM
p133
aVSCEF
p134
aVLiberation
p135
aVWL
p136
aVWL
p137
aVSCEF
p138
aVNew Left
p139
aVRedstockings
p140
aVWashington Square Church
p141
aVNOW
p142
aVPlaza
p143
aVPlaza
p144
aVFlorida Paper
p145
aVVillage
p146
aVFemale Liberation
p147
aVCommittee
p148
aVWLM
p149
aVDell
p150
aVWL
p151
aVMidwife Force
p152
aVCadillac
p153
aVBITCH
p154
aVBITCH
p155
aVLiberation
p156
aVFUCL
p157
aVDaily News
p158
aVDaily News
p159
aVAtlantic
p160
aVDistricts
p161
aVCongress
p162
aVCongress
p163
aVAbortion Handbook
p164
aVLaw School
p165
aVDAVIDSON Law
p166
aVNew York University Law School
p167
aVRights Committee
p168
aVCommiitee
p169
aVCommittee
p170
aVCommittee
p171
aVUniversity Law
p172
aVHarvard
p173
aVCongress
p174
aVACLU Women
p175
aVCongress
p176
aVEqual Rights Amendment
p177
aVSupreme Court
p178
aVCongress
p179
aVCOPE
p180
aVNew Feminists
p181
aVNew Feminists
p182
aVNew Feminist
p183
aVANSELMA
p184
aVNew Feminist
p185
aVNew Feminist
p186
aVBlack Theatre
p187
aVAmerican Civil Liberties Union
p188
aVRedstockings
p189
aVNOW
p190
aVVISTA
p191
aVPeace Corps
p192
aVTRUTHS
p193
aVSMELL
p194
aVTerrible Tramp
p195
aVPlayboy
p196
aVTO
p197
aVSupreme Court
p198
aVAudubon
p199
aVRadical Women
p200
aVNEW
p201
aVNEW
p202
aVOUR
p203
aVFROM
p204
aVJeannette Rankin Brigade
p205
aVFree University
p206
aVCongress
p207
aVCongress
p208
aVPageant Players
p209
aVULTIMATE
p210
aVCongress
p211
aVLIFE
p212
aVLysistrata
p213
aVLiberation
p214
aVMiniskirt Caucus
p215
aVLiberation
p216
aVMiniskirt Caucus
p217
aVHUAC
p218
aVHER
p219
aVWBAI
p220
aVDemocratic Convention
p221
aVAmerican Revolution
p222
aVCURRENT
p223
aVNOTES Circulation
p224
aVSingle Girl
p225
aVMONTH Staughton Lynd National Guardian Article
p226
aVGeneral Council
p227
aVREDSTOCKINGS
p228
aVNEW
p229
aVWRM
p230
aVWRM
p231
aVWRM
p232
aVNational Labor Union Convention
p233
aVWRM
p234
aVSeneca Falls
p235
aVWRM
p236
aVWRM
p237
aVAtheneum
p238
aVWRM
p239
aVNOT
p240
aVSuffrage Association
p241
aVHALF
p242
aVARE
p243
aVNational Suffrage Association
p244
aVAmerican Suffrage Association
p245
aVKibbutz
p246
aVTOO
p247
aVSupreme Court
p248
aVNOT
p249
aVPenguin
p250
aVPenguin
p251
aVBoston University
p252
aVBoston University
p253
aVReal Woman
p254
aVPagan Eros
p255
aVChristian Agape
p256
aVRotiEcnionl
p257
aVRcikiaii Confessional
p258
aVHjO
p259
aVGreenwich Village
p260
aVPAT
p261
aVLiberation
p262
aVStandard American Housewife
p263
aVNew Commodity
p264
aVLiberation
p265
aVLITTLE
p266
aVRedbook
p267
aVVillage
p268
aVBar
p269
aVmyselT
p270
aVLiberation
p271
aVLiberation
p272
aVFemale Liberation
p273
aVSocial Revolution
p274
aVRadical Feminist
p275
aVLeft Debate Women
p276
aVCritic
p277
aVAbortion Law
p278
aVCongress
p279
aVNew Feminist Theatre
p280
aVKate Mlllex Redsiockings
p281
aVMaslers
p282
aVPockelbooks
p283
aVPockelbooks
p284
aVU.N.
p285
aVBitch
p286
aVLiberation
p287
aVSocial Revolution
p288
aVNOW
p289
aVNational Organization
p290
aVMovement Group
p291
aVLiberation
p292
aVSCEF
p293
aVSCEF
p294
aVSCEF
p295
aVSCEF
p296
aVSCEF
p297
aVSCEF
p298
aVSCEF
p299
aVKith
p300
aVSNCC
p301
aVME
p302
aVII
p303
aVWL
p304
aVSCEF
p305
aVSCEF
p306
aVWLM
p307
aVSCEF
p308
aVSCEF
p309
aVSCEF
p310
aVWL
p311
aVSCEF
p312
aVSCEF
p313
aVSCEF
p314
aVSCEF
p315
aVSCI
p316
aVWLM
p317
aVSCEF
p318
aVBAM
p319
aVSCEF
p320
aVLiberation
p321
aVWL
p322
aVWL
p323
aVRedstockings
p324
aVNOW
p325
aVPlaza
p326
aVPlaza
p327
aVFlorida Paper
p328
aVVillage
p329
aVFemale Liberation
p330
aVWLM
p331
aVSlate
p332
aVAlIvci
p333
aVCadillac
p334
aVBITCH
p335
aVBITCH
p336
aVII
p337
aVLiberation
p338
aVFUCK
p339
aVDally News
p340
aVAtlantic
p341
aVBuffalo Republics
p342
aVNOW
p343
aVCongress
p344
aVAbortion Handbook
p345
aVLaw School
p346
aVDAVIDSON Law
p347
aVUniversity Law School
p348
aVRights Committee
p349
aVCommiitee
p350
aVCongress
p351
aVCon Congress
p352
aVCongress
p353
aVCOPE
p354
aVNew Feminists
p355
aVNew Feminists
p356
aVNew Feminist
p357
aVANSELMA
p358
aVNew Feminist
p359
aVIhe New Feminist
p360
aVBlack Theatre
p361
aVNet
p362
aVACLU Women
p363
aVNOW
p364
aVFen
p365
aVVISTA
p366
aVPeace Cotps
p367
aVTRUTHS
p368
aVFEMINISTS
p369
aVOUI
p370
aVChicago Womens Liberation Union
p371
aVPeoples Republic
p372
aVWLM
p373
aVWLM
p374
aVAmerican Women
p375
aVWLM
p376
aVLiberation
p377
aVUnited Nations
p378
aVLiberation
p379
aVCommon
p380
aVDyke
p381
aVLesbian Liberation
p382
aVUN
p383
aVVillage
p384
aVChicago Women
p385
aVLiberation Union
p386
aVUrban Research Corporation
p387
aVAmazons
p388
aVBlack Movement Women
p389
aVFirst Sex
p390
aVOrnate
p391
aVFirst Sex
p392
aVIroquois
p393
aVFemale Liberation
p394
aVFeminist Revolution
p395
aVHaight Free Clinic
p396
aVFord Foundation
p397
aVFuck Housework
p398
aVCongress
p399
aVLiberation
p400
aVLaw Offices
p401
aVPicture Hut
p402
aVFarrolone Islands
p403
aVSeizels
p404
aVSeizels
p405
aVFuck Housework
p406
aVPAID
p407
aVMothers for Peace
p408
aVBar
p409
aVNew Left
p410
aVFederal Court
p411
aVFuck Housework
p412
aVFeminist Art
p413
aVOF
p414
aVNew Left
p415
aVNew Left
p416
aVLiberation
p417
aVNOW
p418
aVOR
p419
aVALL
p420
aVBABY
p421
aVARMY
p422
aVOF
p423
aVLOVERS
p424
aVTHOU
p425
aVSisterhood
p426
aVFLIP
p427
aVLiberation Union
p428
aVJOURNAL OF LIBERATION
p429
aVREFORM
p430
aVNOW
p431
aVBay Area Women
p432
aVBicentennial Women
p433
aVLiberation
p434
aVRedstockings
p435
aVKRITZLER
p436
aVFirst National Women
p437
aVLiberation Conference
p438
aVRedstockings
p439
aVBerkeley Women
p440
aVLiberation
p441
aVStrange
p442
aVHare Krishnas
p443
aVRedstockings
p444
aVFeminist Art
p445
aVNew University Conference
p446
aVChicago Women
p447
aVLiberation Union
p448
aVLiberation
p449
aVOWL
p450
aVUN
p451
aVAmerican Red Cross
p452
aVKent
p453
aVFirst National Women
p454
aVLiberation Conference
p455
aVFirst National Women
p456
aVLiberation Conference
p457
aVRedstockings
p458
aVNation
p459
aVInternational Herald Tribune
p460
aVSERRE
p461
aVFeministes Revolurionnaires
p462
aVALLIANCE
p463
aVCity College
p464
aVVillage Voice
p465
aVWILLIS
p466
aVNew Yorker
p467
aVWBAI
p468
aVHOW
p469
aVParadise
p470
aVRedstockings
p471
aVNYRW
p472
aVNYRW
p473
aVNOW
p474
aVCommission
p475
aVCIA Activities
p476
aVClA
p477
aVFBI
p478
aVWLM
p479
aVSelect Committee
p480
aVFeminist Revolution
p481
aVRedstockings
p482
aVLiberation
p483
aVBiack Liberation Movement
p484
aVAwareness Network
p485
aVAwareness Week
p486
aVMARC
p487
aVHuman Alternatives Movement
p488
aVNEW
p489
aVSwedish Information Service
p490
aVConsulate
p491
aVNOW
p492
aVMasculine Mystique
p493
aVPlayboy Club
p494
aVMasculine Mystique
p495
aVNOW
p496
aVTCB
p497
aVNOW
p498
aVKeeping Women Out
p499
aVLIB
p500
aVSCEF Carol Honisch Women
p501
aVLiberation
p502
aVSCEF
p503
aVSCEF
p504
aVSCEF
p505
aVSCEF
p506
aVSCEF
p507
aVSCEF
p508
aVSCEF
p509
aVPanthers
p510
aVPanthers
p511
aVCommunist Party
p512
aVSCEF
p513
aVBlack Panther Party
p514
aVSCEF
p515
aVBradens
p516
aVSCEF
p517
aVSCEF
p518
aVSCEF
p519
aVSCEF
p520
aVInterim Report
p521
aVSCEF
p522
aVJOMO
p523
aVSCEF
p524
aVBlack Panthers
p525
aVSCEF
p526
aVSCEF
p527
aVSCEF
p528
aVSCEF
p529
aVSCEF
p530
aVSCEF
p531
aVSCEF
p532
aVSCEF
p533
aVSCEF
p534
aVSCEF
p535
aVSNCC
p536
aVSNCC
p537
aVSCEF
p538
aVSNCC
p539
aVSCEF
p540
aVSCEF
p541
aVSCEF
p542
aVSCEF
p543
aVSCEF
p544
aVLiberation Calendar
p545
aVSCEF
p546
aVSCEF
p547
aVSCEF
p548
aVBradens
p549
aVSCEF
p550
aVSCEF
p551
aVSCEF
p552
aVSCEF
p553
aVFeminist Revolution
p554
aVMovement Group
p555
aVBurning Spear
p556
aVSocialist Party
p557
aVLiberation
p558
aVNO
p559
aVSNCC
p560
aVSDS
p561
aVAmerican Federation
p562
aVAFL
p563
aVTsinghua University
p564
aVTO
p565
aVTO
p566
aVStanford University
p567
aVMuseum
p568
aVFeminist Revolution
p569
aVNOW
p570
aVUP
p571
aVMuseum
p572
aVNew School Art Center
p573
aVBrooklyn Museum
p574
aVMOMA
p575
aVMOMAs
p576
aVMOMA
p577
aVREDSTOCKINGS
p578
aVCIA
p579
aVCIA
p580
aVCongresional Record
p581
aVCongressional Record
p582
aVNewsweek
p583
aVWashington Post
p584
aVCIA
p585
aVCIA
p586
aVCIA
p587
aVCIA
p588
aVClA
p589
aVREDSTDCKINGS
p590
aVNews Bureau
p591
aVTimes
p592
aVIndependent Research Service
p593
aVIndependent Research Service
p594
aVTimes
p595
aVIndependent Research Service
p596
aVCIA
p597
aVlPC
p598
aVIndependent Research Service
p599
aVCIA
p600
aVFBI
p601
aVIndependent Research Service
p602
aVIndependent Research Service
p603
aVVienna Youth Festival
p604
aVCongress
p605
aVHarvard University
p606
aVIndependent Research Service
p607
aVHelsinki Youth Festival
p608
aVIndependent Research
p609
aVIndependent Research
p610
aVNSA
p611
aVIndependent Research Service
p612
aVCivil Aeronautics Board
p613
aVCIA
p614
aVNSA
p615
aVCIA
p616
aVHarvard
p617
aVPrinceton
p618
aVCIA
p619
aVIndependent Research Service
p620
aVYoung Socialist
p621
aVCIA
p622
aVFoundation
p623
aVFYSA
p624
aVCIA
p625
aVInternational Union
p626
aVSocialist Youth
p627
aVWho
p628
aVIndependent Research Service
p629
aVIndependent Research Service
p630
aVBoard
p631
aVVillage Voice
p632
aVEsquire
p633
aVNunevmer
p634
aVLeague
p635
aVThousand Indias
p636
aVBeach Book
p637
aVBoard
p638
aVNuneviller
p639
aVLeague
p640
aVBeach Book
p641
aVPOSTAL
p642
aVSERVICE
p643
aVAND
p644
aVPST Group
p645
aVPostal
p646
aVNet Press
p647
aVCarbine
p648
aVHelsinki Youth Festival
p649
aVClA
p650
aVCIA
p651
aVMcCall
p652
aVWashington Post
p653
aVWarner Communications
p654
aVWashington Post
p655
aVNational Kinney
p656
aVWarner Communications
p657
aVWarner Brothers
p658
aVWarner
p659
aVNational Periodical Publications
p660
aVConnections Feminist
p661
aVParadise Island
p662
aVESQUIRE
p663
aVNEW
p664
aVNEW
p665
aVFirst Sex
p666
aVITT
p667
aVlTT
p668
aVChemical Bank
p669
aVBell Telephone
p670
aVITT
p671
aVlTT
p672
aVlTl
p673
aVPublic Broadcasting
p674
aVPublic Broadcasting
p675
aVPST Group
p676
aVPST
p677
aVAssociates
p678
aVConsulting Organizations Directory
p679
aVDatamation Industry
p680
aVBASlC
p681
aVPST
p682
aVPST Group
p683
aVHospital Data Services
p684
aVSAMA
p685
aVScientific Apparatus Makers Association
p686
aVClA
p687
aVNational Student Assmiciation
p688
aVNSA
p689
aVCIA
p690
aVNSA
p691
aVSOAK
p692
aVNational Organization
p693
aVNOW
p694
aVNOW Legal Defense
p695
aVEducation Fund
p696
aVFord Foundation
p697
aVNOW
p698
aVAdvocacy Project
p699
aVNOW
p700
aVNOW
p701
aVNOW
p702
aVNational Organization
p703
aVUSIA
p704
aVUSIA
p705
aVMcCall
p706
aVCIA
p707
aVClA
p708
aVBedford
p709
aVWAA
p710
aVRockefeller Family Fund
p711
aVFoundation Grants Index
p712
aVLoeb
p713
aVArca
p714
aVNational Black Feminist Organization
p715
aVNational Black Feminist Organization
p716
aVCIA
p717
aVCIA
p718
aVCIA
p719
aVCIA
p720
aVCIA
p721
aVAmerican Revolution
p722
aVIndependent Research
p723
aVCIA
p724
aVCIA
p725
aVCommittee
p726
aVIndependent Research Service
p727
aVCommittee
p728
aVCongress
p729
aVU.N.
p730
aVNOW
p731
aVOverseas Educational Fund
p732
aVLeague
p733
aVOEF
p734
aVOEF
p735
aVCIA
p736
aVOEF
p737
aVAID
p738
aVOEF
p739
aVOEF
p740
aVOEF
p741
aVCommittee
p742
aVCommittee
p743
aVCommittee
p744
aVCommittee
p745
aVCommittee
p746
aVCounterSpy
p747
aVOrganizing Committee
p748
aVCIA
p749
aVCIA
p750
aVWatergate
p751
aVLaw Enforcement Assistance Administration
p752
aVLEAA
p753
aVLEAA
p754
aVClA
p755
aVLEAA
p756
aVSymposium
p757
aVSOUTHERN PATRIOT
p758
aVTlME
p759
aVLEAA
p760
aVLEAA
p761
aVClA
p762
aVRockefeller Commission
p763
aVCIA
p764
aVClA
p765
aVRedstockings
p766
aVLeague
p767
aVWomen Voters
p768
aVAmerican Revolution
p769
aVYWCA
p770
aVSNCC
p771
aVSNCC
p772
aVSNCC
p773
aVNational Conference
p774
aVNational Organization
p775
aVNOW
p776
aVNational Organization
p777
aVNOW
p778
aVNOW
p779
aVNOW
p780
aVJeanette Rankin Brigade
p781
aVWBAI
p782
aVNOW
p783
aVUPPlTY
p784
aVULTIMATE
p785
aVALL
p786
aVOR
p787
aVOUR
p788
aVOUR
p789
aVUNITE
p790
aVCAN
p791
aVREAL
p792
aVOF
p793
aVULTIMATE
p794
aVSCEF
p795
aVSCEF
p796
aVSCEF
p797
aVAction Group
p798
aVSCEF
p799
aVNY Women
p800
aVLiberation
p801
aVSisterhood
p802
aVFirst Sex
p803
aVFirst Sex
p804
aVFeminist Solution
p805
aVFeminist Revolution
p806
aVSPAZM
p807
aVOR
p808
aVLiberation
p809
aVLiberation
p810
aVWL
p811
aVRaiders
p812
aVRedstockings
p813
aVLiberation
p814
aVIrish Home Rule
p815
aVParnell
p816
aVPolitical Union
p817
aVRedstockings Reflections
p818
aVSolidarity Forever
p819
aVLabor Party
p820
aVParliament
p821
aVIndependent Labor Party
p822
aVSocialists
p823
aVPolitical Union
p824
aVIrish Home Rule
p825
aVNational Union
p826
aVSuffrage Societies
p827
aVSNCC
p828
aVPolitical Union
p829
aVLeague
p830
aVUnionists
p831
aVScottish University
p832
aVManchester School Board
p833
aVLeague
p834
aVViceroy
p835
aVParliament
p836
aVHearty Laughter School
p837
aVCommons
p838
aVParliament
p839
aVStrachey
p840
aVNational Union
p841
aVEvangelical School
p842
aVEnglishmen
p843
aVEvangelical
p844
aVParliament
p845
aVCensus
p846
aVRoyal Scotch Golf Links
p847
aVSocialists
p848
aVSocialists
p849
aVUNITED
p850
aVFIGHT
p851
aVFIGHT
p852
aVLEAGUE
p853
aVEpistle Dedicatory
p854
aVParliament
p855
aVObserver
p856
aVParliament
p857
aVCommons
p858
aVRussell
p859
aVCommons
p860
aVTRUCE
p861
aVAsquith
p862
aVParliament
p863
aVNational Union
p864
aVParliament
p865
aVCommons
p866
aVHEIGHT
p867
aVOF
p868
aVKew
p869
aVParliament
p870
aVTIDE
p871
aVOF
p872
aVParliament
p873
aVParliament
p874
aVParliament
p875
aVAsquith
p876
aVHarvard
p877
aVTrickster
p878
aVRedstockings
p879
aVEmpire
p880
aVTrickster
p881
aVHarvard Crimson Centennial
p882
aVCrimson
p883
aVCrimson
p884
aVCrimson
p885
aVCrimson
p886
aVCrimson
p887
aVNew Feminism
p888
aVCrimson
p889
aVHarvard
p890
aVHarvard
p891
aVCrimson
p892
aVBoston Globe
p893
aVFeminist Revolution
p894
aVOxbridge
p895
aVArmy
p896
aVArmy
p897
aVJOB
p898
aVCadillac
p899
aVFeminist Revolution
p900
aVRape Conference
p901
aVRedstockings
p902
aVTeamsters
p903
aVTeamsters
p904
aVTeamsters
p905
aVFarm Workers
p906
aVWBAI
p907
aVWBAI
p908
aVEsquire
p909
aVCollege Art Association
p910
aVSuffolk Museum Women Artists
p911
aVFeminist Revolutiou
p912
aVFeminist Art
p913
aVFini La Fille
p914
aVProletariat Rosorio
p915
aVRadical Forum
p916
aVRevolutionary Union
p917
aVNational Organization
p918
aVNational Women
p919
aVRevolutionary Union
p920
aVFeminist Revolution
p921
aVEqual Rights Amendment
p922
aVRevolutionary Union
p923
aVCollegiate Dictionary
p924
aVLiberation
p925
aVOWL
p926
aVCIA
p927
aVITT
p928
aVOEO
p929
aVWatergate
p930
aVInternal Revenue
p931
aVMet
p932
aVCensus Bureau
p933
aVCIA
p934
aVFBI
p935
aVArmy
p936
aVPX
p937
aVFBI
p938
aVWatergate
p939
aVRepublican Convention
p940
aVShell Oil
p941
aVFeminist Art
p942
aVTeamsters
p943
aVNational Organization
p944
aVLiberation
p945
aVNOW
p946
aVCongress
p947
aVLiberation
p948
aVNOW
p949
aVLiberation
p950
aVNOW
p951
aVLiberation
p952
aVLiberation
p953
aVLiberation
p954
aVLiberation
p955
aVLiberation
p956
aVNOW
p957
aVSupreme Court
p958
aVCongress
p959
aVCongress
p960
aVCivil Rights Commission
p961
aVSupreme Court
p962
aVLiberation
p963
aVSupreme Court
p964
aVSupreme Court
p965
aVPeking Iournal
p966
aVRedstockings
p967
aVLA
p968
aVVillage Voice
p969
aVHealth Conference
p970
aVCROFT
p971
aVFWHC New Ways
p972
aVKeeping Women Out
p973
aVWomen Psychologists
p974
aVTimes
p975
aVTimes
p976
aVKnights
p977
aVSan Francisco Women
p978
aVTimes
p979
aVCouncil
p980
aVLiberation
p981
aVFeminist Revolution
p982
aVARE
p983
aVNOT
p984
aVMEDIAN
p985
aVDEW
p986
aVNationai Organization
p987
aVBudget Control Act
p988
aVRussell Sage Foundation
p989
aVTimes
p990
aVHandbook
p991
aVWomen Workers
p992
aVFire Department
p993
aVFederal District Court
p994
aVEconomic Report
p995
aVHandbook
p996
aVWomen Workers
p997
aVHandbook
p998
aVHandbook
p999
aVHandbook
p1000
aVWomen Workers
p1001
aVRATIO
p1002
aVAND
p1003
aVOF
p1004
aVHandbook
p1005
aVWomen Workers
p1006
aVLabor Wornens Bureau
p1007
aVLabor Legislation
p1008
aVWE
p1009
aVLiberation
p1010
aVLiberation
p1011
aVNOW
p1012
aVNOW Bergman
p1013
aVFeminist Revolution
p1014
aVWLM
p1015
aVHandbook
p1016
aVAmerican Council
p1017
aVMedical College
p1018
aVHistory Group
p1019
aVWHAT
p1020
aVArnamiya Silk
p1021
aVFemintern Press
p1022
aVCortlandt Street Exchange
p1023
aVNOW
p1024
aVNational Organization
p1025
aVMcClendon
p1026
aVMcClendon
p1027
aVTimes
p1028
aVBoard
p1029
aVBrooklyn Navy Yard
p1030
aVChicago Freight
p1031
aVBad Boxcar Truck
p1032
aVNational Geographic Magazine
p1033
aVMirrorlike Tail Assembly
p1034
aVRiverer
p1035
aVFemale Labor Force
p1036
aVFord Foundation
p1037
aVPolice Department
p1038
aVFederal Government
p1039
aVVatican
p1040
aVDelta
p1041
aVRedstockings
p1042
aVCoast Guard
p1043
aVCoast Guard
p1044
aVPrinceton University
p1045
aVCarnegie Commission
p1046
aVColumbia University
p1047
aVGraduate Faculties
p1048
aVAmerican Political Science
p1049
aVCarnegie Commission
p1050
aVCentral Committee
p1051
aVParty
p1052
aVParty
p1053
aVOF
p1054
aVNOW
p1055
aVCarnegie Commission
p1056
aVFirst National Conference
p1057
aVFirst National
p1058
aVLiberation Conference
p1059
aVIDEA
p1060
aVLiberation
p1061
aVLiberation
p1062
aVNational Organization
p1063
aVLegislature
p1064
aVNOW
p1065
aVFANSHEN
p1066
aVLiberation
p1067
aVLiberation
p1068
aVFemale Liberation
p1069
aVWON Part
p1070
aVRights Convention
p1071
aVWLM
p1072
aVlNC
p1073
aVSociety of Friends
p1074
aVCongress
p1075
aVNOW Accomplishments
p1076
aVNational Organization
p1077
aVNOW
p1078
aVMovement Girls
p1079
aVNOW Eastern Regional Conference
p1080
aVNOW
p1081
aVFemale Liberation
p1082
aVFemale Liberation Movement
p1083
aVCommittee
p1084
aVNOW
p1085
aVAmerican Family
p1086
aVSupreme Court
p1087
aVNOW
p1088
aVANGRY
p1089
aVFreedom Workers
p1090
aVANY
p1091
aVLaughter
p1092
aVWLM
p1093
aVSupreme Court
p1094
aVKeeping Women Out
p1095
aVWLM
p1096
aVWLM
p1097
aVFemale Liberation
p1098
aVLiberation
p1099
aVFemale Liberation
p1100
aVSPAZM Newsletter
p1101
aVLeft Debate
p1102
aVRed Women
p1103
aVMetropolitan Museum
p1104
aVRedstockings
p1105
aVCongress
p1106
aVLadies Home
p1107
aVNOW
p1108
aVNOW
p1109
aVNOW
p1110
aVNOW
p1111
aVCaucus
p1112
aVNOW
p1113
aVCaucus
p1114
aVNOW
p1115
aVNOW
p1116
aVLeague
p1117
aVLeague
p1118
aVCongress
p1119
aVCongress
p1120
aVCaucus
p1121
aVWLM
p1122
aVWLM
p1123
aVNO
p1124
aVJOURNAL OF
p1125
aVLiberated Womank Appoinrmenr Cafendar
p1126
aVFirst Sex
p1127
aVFirst Sex
p1128
aVFirst Sex
p1129
aVFirst Sex
p1130
aVVirginia Gazette
p1131
aVColonial Virginia Gazette
p1132
aVDaily News
p1133
aVFeminists
p1134
aVNOW
p1135
aVWLM
p1136
aVWLM
p1137
aVWLM
p1138
aVNOW
p1139
aVNOW
p1140
aVNOW
p1141
aVFEMINISTS
p1142
aVUrban Research Corporation
p1143
aVFeminist Revolution
p1144
aVTime
p1145
aVWLM
p1146
aVECTIVE
p1147
aVNEW
p1148
aVCongress
p1149
aVCongress
p1150
aVLiberation
p1151
aVDISCOVE
p1152
aVCongress
p1153
aVCommunist International
p1154
aVGUARDIAN
p1155
aVArmed Forces
p1156
aVJeannette Rankin Brigade
p1157
aVRedstockings
p1158
aVFeminist Revolution
p1159
aVSuffrage Association
p1160
aVRadcliffe Women
p1161
aVSmith College
p1162
aVWLM
p1163
aVArno
p1164
aVSenaca Falls Convention
p1165
aVDOES
p1166
aVALL
p1167
aVOF
p1168
aVBAD
p1169
aVARE
p1170
aVETC
p1171
aVWHY
p1172
aVARE
p1173
aVSHE
p1174
aVSO
p1175
aVNOT
p1176
aVINTO
p1177
aVWatergate
p1178
aVMASCU
p1179
aVTYPE
p1180
aVSHE
p1181
aVMET
p1182
aVWHY
p1183
aVSO
p1184
aVWHY
p1185
aVYOUR
p1186
aVNOT
p1187
aVSEEN
p1188
aVWHY
p1189
aVETC
p1190
aVWretched
p1191
aVNational Organization
p1192
aVNational Organization
p1193
aVAmerican Pieced Quilts
p1194
aVClocks
p1195
aVFogg Art Museum
p1196
aVFine Arts Department
p1197
aVHarvard.
p1198
aVSNCC
p1199
aVHarvard
p1200
aVRedstockings Position
p1201
aVCIA
p1202
aVFBI
p1203
aVNEW
p1204
aVCentral Criminal Court
p1205
aVCox
p1206
aVColiseum Music Hall
p1207
aVRoyal
p1208
aVEighth Route Army
p1209
aVNew Fourth Army
p1210
aVAkfyama
p1211
aVLIST
p1212
aVREDSTOCKINGS
p1213
aVFor Abortion Divorce
p1214
aVCatholic Italy
p1215
aVLola
p1216
aVITIOFB
p1217
aVFeminist Revolution
p1218
aVCorte
p1219
aVPOST
p1220
aVCommunist Party
p1221
aVCommunist Party
p1222
aVFoletti
p1223
aVTrento
p1224
aVLola
p1225
aVQFQ
p1226
aVCIA
p1227
aVCIA
p1228
aVCIA
p1229
aVHelsinki Youth Festival
p1230
aVYouth Festival
p1231
aVCIA
p1232
aVYouth Festival
p1233
aVClAs
p1234
aVHelsinki Festival
p1235
aVIndependent Research Service
p1236
aVCIA
p1237
aVCIA
p1238
aVRamparts
p1239
aVCIA
p1240
aVIndependent Research Service
p1241
aVRamparts
p1242
aVCIA
p1243
aVCIA
p1244
aVCIA
p1245
aVCIA
p1246
aVHelsinki Festival
p1247
aVHelsinki Youth Festival
p1248
aVCIA
p1249
aVIndependent Research Service
p1250
aVFeminist Revolution
p1251
aVLiberation
p1252
aVFeminist Revolution
p1253
aVCIA Gloria
p1254
aVOUR
p1255
aVFeminist Revolution
p1256
aVVienna Youth Festival
p1257
aVCIA
p1258
aVCIA
p1259
aVRevolution I52 Members
p1260
aVCIA
p1261
aVNational Student Assocaition
p1262
aVNSA
p1263
aVCIA
p1264
aVIndependent Research Services Board
p1265
aVCIA
p1266
aVRamparts
p1267
aVRamparts
p1268
aVIndependent Research Service
p1269
aVCIA
p1270
aVNSA
p1271
aVCIA
p1272
aVRedstockings
p1273
aVofMs
p1274
aVClA
p1275
aVClAs
p1276
aVIndependent Research Service
p1277
aVCIA
p1278
aVCIA
p1279
aVIndependent Research
p1280
aVCIA
p1281
aVIndependent Research
p1282
aVRamparts
p1283
aVBorden Trust
p1284
aVPrice Fund
p1285
aVEdsel Fund
p1286
aVBeacon Fund
p1287
aVKenteld Fund
p1288
aVArmy
p1289
aVWatergate
p1290
aVIndependent Research
p1291
aVNSA
p1292
aVIndependent Research Service
p1293
aVThousand Indies
p1294
aVCumulative Book Index
p1295
aVCongress
p1296
aVCIA With You-tits At Festivals Is Defended
p1297
aVCIA
p1298
aVCIA
p1299
aVHellmkl
p1300
aVBell Kappa
p1301
aVINK
p1302
aVHelsinki Festival
p1303
aVResearch Service
p1304
aVRelearcla
p1305
aVRileuch
p1306
aVWashinswn Post
p1307
aVPrinceton
p1308
aVVienna Youth Festival
p1309
aVNEW
p1310
aVWorld Youth Festivals
p1311
aVNSA
p1312
aVCIA
p1313
aVCIA
p1314
aVCIA
p1315
aVHelsinki Youth Festival
p1316
aVIndependent Research Service
p1317
aVVienna Youth Festival
p1318
aVIndependent Research Service
p1319
aVVienna Youth Festival
p1320
aVIndependent Research Service
p1321
aVEighth Festival
p1322
aVHEBCHICIC
p1323
aVVienna Youth
p1324
aVIndependent Research Service
p1325
aVSeventh Youth
p1326
aVWFDY
p1327
aVSocialist Party
p1328
aVPSI
p1329
aVWFDY
p1330
aVPSI
p1331
aVCIA
p1332
aVWFDY
p1333
aVWFDY
p1334
aVFederal German Republic
p1335
aVSocialist Party
p1336
aVPC
p1337
aVStudent Commission
p1338
aVArgentine National Festival Committee
p1339
aVPC
p1340
aVMarxist Discussion Club
p1341
aVCity College
p1342
aVDemocratic Women
p1343
aVCommunist Party
p1344
aVAlliance
p1345
aVPanthers
p1346
aVViet Vets
p1347
aVHarrisburg Case
p1348
aVBrothers
p1349
aVBoard
p1350
aVKNOWN
p1351
aVNazi
p1352
aVOnThe Norionol Block Feminist Orgonizorion
p1353
aVRadical Lesbians
p1354
aVSocialist Workers Party
p1355
aVNational Black Feminist Organization
p1356
aVSloan
p1357
aVNBFO
p1358
aVNBFO
p1359
aVNBFO
p1360
aVSWPwomen
p1361
aVRadical Lesbian
p1362
aVNBFO
p1363
aVNBFO
p1364
aVAfrican Liberation
p1365
aVNBFO
p1366
aVNBFO
p1367
aVNBFO
p1368
aVNBFO
p1369
aVNBFO
p1370
aVFirst Sex
p1371
aVMasculine Mystique
p1372
aVTask Force
p1373
aVNational Black Feminist Organization
p1374
aVRedstockings
p1375
aVRedstockings
p1376
aVRedstockings
p1377
aVCIA
p1378
aVFeminist Revolution
p1379
aVTIME
p1380
aVNEW
p1381
aVNo
p1382
aVNo
p1383
aVNo
p1384
aVNo
p1385
aVNo
p1386
aVNEW
p1387
aVNEW
p1388
aVHIS
p1389
aVHarvard
p1390
aVNEW
p1391
aVUNITED
p1392
aVVienna Youth Festival
p1393
aVWomen Lawyers Association
p1394
aVHarvard U
p1395
aVChristian Temperance Union
p1396
aVWoman Power
p1397
aVChristian Temperance Union
p1398
aVPhoenix House
p1399
aVGrove Press Sex
p1400
aVSandy Springs Conference
p1401
aVBrooklyn Union
p1402
aVRedstockings
p1403
aVSouthern Students Organizing Committee
p1404
aVVirigia Slims
p1405
aVPepsi
p1406
aVWomen Lawyers Association
p1407
aVHarvard U
p1408
aVChristian Temperance Union
p1409
aVWoman Power
p1410
aVChristian Temperance Union
p1411
aVPhoenix House
p1412
aVGrove Press Sex
p1413
aVSandy Springs Conference
p1414
aVIhe SCEF
p1415
aVBrooklyn Union
p1416
aVRedstockings
p1417
aVRedstockings
p1418
aVSouthern Studcnis Organizing Committee
p1419
aVIhe Daily News
p1420
aVLife
p1421
aVRights Projec
p1422
aVRadical Lesbians
p1423
aVLavender Menace
p1424
aVFeminist Revolution
p1425
aVFeminist Revolution
p1426
aVGay Liberation
p1427
aVBryn Mawr College
p1428
aVRican Communist Party
p1429
aVVillage Voice
p1430
aVHoward University
p1431
aVEsquire
p1432
aVFeminist Revolution Thoughts
p1433
aVHistory Library
p1434
aVBlack Revofutionaries
p1435
aVFeminist Revolution
p1436
aVMasculine Mystique Conference
p1437
aVMasculine Mystique Task Force
p1438
aVWoman Redstockings
p1439
aVFeminist Revolution
p1440
aVGainesville Women
p1441
aVRedstockings
p1442
aVPraeger Books
p1443
aVEsquire
p1444
aVLife
p1445
aVEsquire
p1446
aVMagazine Corporation
p1447
aVTimes
p1448
aVSmith College
p1449
aVPhi Beta Kappa
p1450
aVOrtho Pharmaceuticals
p1451
aVExxon Oil
p1452
aVWomen Strike
p1453
aVVillage Voice
p1454
aVFeminist Revolution
p1455
aVGazette
p1456
aVAction Alliance
p1457
aVManhattan Bank Foundation
p1458
aVTimes Magazine
p1459
aVWomen Voters
p1460
aVRedstockings
p1461
aVRankin Brigade
p1462
aVSalvation Army
p1463
aVWoman Suffrage Associations
p1464
aVLondon University
p1465
aVFreedom League
p1466
aVLaughter School
p1467
aVFreedom League
p1468
aVTimes
p1469
aVRedstockings
p1470
aVLife
p1471
aVLife
p1472
aVCollege Art Conference
p1473
aVRedstockings SNCC Photo
p1474
aVEsquire
p1475
aVLitton Industries
p1476
aVAir Force
p1477
aVVillage Voice
p1478
aVWomenb Liberation
p1479
aVWoman Power
p1480
aVKu Klux Klan
p1481
aVBureau Redstockings
p1482
aVT969 Handbookfon Women Workers
p1483
aVTrade Union League
p1484
aVFrancisco Women
p1485
aVDepartmentof Labor
p1486
aVLabor Board
p1487
aVLabor Board
p1488
aVFeminist Revolution
p1489
aVCoast Guard
p1490
aVFeminist Revolution
p1491
aVFeminist Revolution
p1492
aVSouthern Student Organizing Committee
p1493
aVRedstockings
p1494
aVMartin Marietta Corporation
p1495
aVWomens History Research Center
p1496
aVWomerfs Liberation
p1497
aVWomarfs World
p1498
aVWomanb World
p1499
aVWomen Voters
p1500
aVRedstockings
p1501
aVBlue Stockings
p1502
aVPussy Power
p1503
aVPeace Campaign
p1504
aVPentagon
p1505
aVYennan Books
p1506
aVWomarfs World
p1507
aVWomans World
p1508
aVWomans World
p1509
aVFeminist Revolution
p1510
aVWomans World
p1511
aVWomans World
p1512
aVFeminist Revolution
p1513
aVSpools Up
p1514
aVI968 Redstockings
p1515
aVBowles Asian Fellowship
p1516
aVSmith College
p1517
aVVienna Youth Festival
p1518
aVFestival Committee
p1519
aVRedstockings
p1520
aVThird World Women
p1521
aa(lp1522
VBaby
p1523
aVMichelangelo
p1524
aVWilhelm Reich
p1525
aVDon
p1526
aVShulamith
p1527
aVAnne
p1528
aVMalcolm
p1529
aVX
aVCarol
p1530
aVElizabeth Sutherland
p1531
aVSingle Woman
p1532
aVJennifer
p1533
aVGardner
p1534
aVShulamith Firestone THE MYTH
p1535
aVGardner
p1536
aVShulamith Firestone THE
p1537
aVKathy Amatniek
p1538
aVAnne Koedt
p1539
aVShulamith Firestone
p1540
aVHempstead
p1541
aVWilliam Baird
p1542
aVJeanette Rankin
p1543
aVS H Green Stamps
p1544
aVKathy Barrett
p1545
aVBeverly Grant
p1546
aVPeggy
p1547
aVDobbins
p1548
aVKathie Amatniek
p1549
aVShulamith
p1550
aVKathie
p1551
aVAmatniek A
p1552
aVRuby Dee
p1553
aVLeslie Parish
p1554
aVMarilyn Webb
p1555
aVAnne ScheerI
p1556
aVKathie
p1557
aVAmatniek A
p1558
aVRuby Dee
p1559
aVLeslie Parish
p1560
aVMarilyn Webb
p1561
aVAnne ScheerI
p1562
aVRankin
p1563
aVDagmar Wilson
p1564
aVWilson
p1565
aVLynn
p1566
aVBill Baird
p1567
aVBill
p1568
aVBill
p1569
aVBill Baird
p1570
aVShulamith Firestone
p1571
aVCrispus Attucks
p1572
aVBetsy
p1573
aVRoss
p1574
aVAnne
p1575
aVKoedt
p1576
aVMarion Davidson
p1577
aVRosalyn Baxandall
p1578
aVKathie Amatniek Rosalyn Baxandall Joan Brown Sandy Burakoski Cindy Cisler Corinne Coleman Marion Davidson Judith Duffett Shulamith Firestone Ann Forer Judy Gabree Jennifer Gardner Carol Hanisch Anne Koedt Lynn Laredo Liz Levy Pearl Oil
p1579
aVRobinson Ellen Shatter Elizabeth Sutherland
p1580
aVStaughton Lynd
p1581
aVCosmopolitan MALE
p1582
aVLinda Le Clair
p1583
aVBarnard
p1584
aVStephanie
p1585
aVBlair Sobel
p1586
aVVogue
p1587
aVGrace
p1588
aVBill
p1589
aVRappaport
p1590
aVKarl Marx
p1591
aVMadame Law
p1592
aVKarl Marx
p1593
aVStaughton Lynd
p1594
aVWarren Hinkle
p1595
aVStaughton Lynd
p1596
aVLynd
p1597
aVJudith
p1598
aVGabree Additional
p1599
aVGeorge Sand
p1600
aVSusan Anthony
p1601
aVElizabeth Cady Stanton
p1602
aVAugusta Lewis
p1603
aVFanny Wright
p1604
aVLucretia Mott
p1605
aVElizabeth Cady Stanton
p1606
aVLouisa May Alcott
p1607
aVMargaret Fuller
p1608
aVScarlett
p1609
aVMyrtilla Miner
p1610
aVFlorence Nightingale
p1611
aVFanny Wright
p1612
aVSojourner Truth
p1613
aVInez Milholland
p1614
aVPrudence Crandall
p1615
aVErnestine Rose
p1616
aVAbigail Scott Duniway
p1617
aVHarriet Tubman
p1618
aVClara Lemlich
p1619
aVAlice Paul
p1620
aVNat Turner
p1621
aVRalph Bunche
p1622
aVGeorge Washington Carver
p1623
aVCarrie
p1624
aVChapman Catt
p1625
aVCarrie Chapman Catt
p1626
aVNettie Rogers Shuler
p1627
aVChas
p1628
aVSons
p1629
aVEleanor
p1630
aVFlexner
p1631
aVAunt Toms
p1632
aVEden
p1633
aVLurleen
p1634
aVWallace
p1635
aVMargaret
p1636
aVChase Smith
p1637
aVJackie Kennedy
p1638
aVLady Bird
p1639
aVFrances Willard
p1640
aVStanton
p1641
aVAnthony
p1642
aVStanton
p1643
aVAnthony
p1644
aVHarriet Stanton Blatch
p1645
aVElizabeth Cady Stanton
p1646
aVShulamith
p1647
aVFirestone R.
p1648
aVMommy
p1649
aVDaddy
p1650
aVCharlotte
p1651
aVAnais Nin
p1652
aVBrace
p1653
aVBarbara Bross
p1654
aVFreud
p1655
aVDenis
p1656
aVDe
p1657
aVReik
p1658
aVBeauvoir
p1659
aVStanton
p1660
aVAnthony
p1661
aVAlter Ego
p1662
aVBaby
p1663
aVSimone
p1664
aVBeauvoir
p1665
aVReik
p1666
aVMr. Hyde
p1667
aVMan
p1668
aVMme
p1669
aVMatisse
p1670
aVMartin Luter King
p1671
aVGeorge Mylonas
p1672
aVSpock
p1673
aVAtkinson Almanina Barbour
p1674
aVVivian Gornick
p1675
aVDaytop
p1676
aVMan
p1677
aVMan
p1678
aVMan
p1679
aVHimself
p1680
aVMan
p1681
aVHei Mind
p1682
aVShulamith Firestone
p1683
aVPat Mainardi
p1684
aVLucille Iverson
p1685
aVAnne Koedt
p1686
aVAtkinson
p1687
aVRoxanne Dunbar
p1688
aVEllen Willis
p1689
aVEllen Willis
p1690
aVCarol Hanisch
p1691
aVMe Anonymous
p1692
aVStale Olah
p1693
aVEllen Willis
p1694
aVCarol Hanisch
p1695
aVSarachild
p1696
aVIrene Peslikis
p1697
aVJennifer Gardner
p1698
aVPamela Kearon
p1699
aVCarol Hanisch
p1700
aVLucinda Cisler
p1701
aVBarbara Susan
p1702
aVMarion Davidson
p1703
aVBonnie Kreps
p1704
aVOlio
p1705
aVBarbara Mehrhof
p1706
aVPamela Kearon
p1707
aVHimself
p1708
aVMan
p1709
aVMan
p1710
aVFreud
p1711
aVMary Ellman
p1712
aVFreud
p1713
aVMr. Ricff
p1714
aVFreud
p1715
aVFreud
p1716
aVFrank
p1717
aVFreud
p1718
aVFreudians
p1719
aVMarie Bonaparte
p1720
aVKinsey
p1721
aVJohnson
p1722
aVLombard Kelly
p1723
aVMarried Men
p1724
aVTte
p1725
aVKinsey
p1726
aVKinsey
p1727
aVKelly
p1728
aVAtkinson
p1729
aVMette Ejlersen
p1730
aVFreud
p1731
aVAlbert
p1732
aVAlfred C. Kinsey
p1733
aVMatie Bonaparte
p1734
aVAlbert
p1735
aVMarried Men
p1736
aVLombard Kelly
p1737
aVMetle Ejlersen
p1738
aVFrank S. Capiio
p1739
aVFawcctt Gold Medal Books The ABZ
p1740
aVInge
p1741
aVSten Hegeler
p1742
aVAlexict Corp
p1743
aVFreud
p1744
aVJohn Rawls
p1745
aVWebster
p1746
aVBeauvoir BITCH
p1747
aVPaul Klee
p1748
aVBetsy Warrior
p1749
aVCaste
p1750
aVMarx
p1751
aVFrederick Engels
p1752
aVMarx
p1753
aVEngels
p1754
aVDaniel
p1755
aVDave Dellinger
p1756
aVDellinger
p1757
aVBitch
p1758
aVEllen
p1759
aVWillis HOT
p1760
aVKathie Sarachild
p1761
aVJames Baldwin
p1762
aVKant
p1763
aVHegel
p1764
aVMarx
p1765
aVFreud
p1766
aVJuliet Mitchell
p1767
aVEngels
p1768
aVBullshit
p1769
aVMarx
p1770
aVMarx
p1771
aVMan
p1772
aVMarx
p1773
aVMarx
p1774
aVStanley Aronowitz
p1775
aVBitch
p1776
aVBeverly Jones
p1777
aVJudith Brown
p1778
aVVanessa Redgrave
p1779
aVLyn Wells
p1780
aVRichard T. Gallen
p1781
aVGallen
p1782
aVGallen
p1783
aVFrederich Engels
p1784
aVTacitus
p1785
aVFidel Castro
p1786
aVMarcuse
p1787
aVVance Packard
p1788
aVPackard
p1789
aVBrand X
p1790
aVMadison
p1791
aVBrut
p1792
aVHerbert Marcuse
p1793
aVErnest Van Den Haag
p1794
aVLady Sings
p1795
aVIve
p1796
aVMarx
p1797
aVLenin
p1798
aVMao
p1799
aVBitch
p1800
aVCross
p1801
aVDares
p1802
aVSexus
p1803
aVCarol Hanisch
p1804
aVSchmearguntz
p1805
aVMiss America
p1806
aVMiss America
p1807
aVMiss America
p1808
aVMiss America
p1809
aVMiss America
p1810
aVRoses
p1811
aVMiss America
p1812
aVMao
p1813
aVShana
p1814
aVAlexander
p1815
aVCarol Giardina
p1816
aVRoz Baxendall
p1817
aVDavid Susskind
p1818
aVThomas F. McGowan
p1819
aVWeve
p1820
aVPrince Charmings
p1821
aVCaughl
p1822
aVLucinda
p1823
aVCisler
p1824
aVMew
p1825
aVBarbara Susan
p1826
aVCare
p1827
aVBeauvoir
p1828
aVDe Beauvoir
p1829
aVArlene Dahl
p1830
aVFreud
p1831
aVFar
p1832
aVRoz Regelson
p1833
aVCharles Ferguson
p1834
aVArt
p1835
aVStrength Power
p1836
aVLucy Stone
p1837
aVBaby
p1838
aVMichelangelo
p1839
aVWilhelm Reich
p1840
aVDon
p1841
aVShulamith
p1842
aVAnne
p1843
aVMalcolm
p1844
aVX
aVCarol
p1845
aVElizabeth Sutherland
p1846
aVSingle Woman
p1847
aVJennifer
p1848
aVGardner
p1849
aVShulamith Firestone THE MYTH
p1850
aVGardner
p1851
aVShulamith Firestone THE
p1852
aVKathy Amatniek
p1853
aVAnne Koedt
p1854
aVShulamith Firestone
p1855
aVHempstead
p1856
aVWilliam Baird
p1857
aVJeanette Rankin
p1858
aVS H Green Stamps
p1859
aVKathy Barrett
p1860
aVBeverly Grant
p1861
aVPeggy
p1862
aVDobbins
p1863
aVKathie Amatniek
p1864
aVShulamith
p1865
aVKathie
p1866
aVAmatniek A
p1867
aVRuby Dee
p1868
aVLeslie Parish
p1869
aVMarilyn Webb
p1870
aVAnne ScheerI
p1871
aVKathie
p1872
aVAmatniek A
p1873
aVRuby Dee
p1874
aVLeslie Parish
p1875
aVMarilyn Webb
p1876
aVAnne ScheerI
p1877
aVRankin
p1878
aVDagmar Wilson
p1879
aVWilson
p1880
aVLynn
p1881
aVBill Baird
p1882
aVBill
p1883
aVBill
p1884
aVBill Baird
p1885
aVShulamith Firestone
p1886
aVCrispus Attucks
p1887
aVBetsy
p1888
aVRoss
p1889
aVAnne
p1890
aVKoedt
p1891
aVMarion Davidson
p1892
aVRosalyn Baxandall
p1893
aVKathie Amatniek Rosalyn Baxandall Joan Brown Sandy Burakoski Cindy Cisler Corinne Coleman Marion Davidson Judith Duffett Shulamith Firestone Ann Forer Judy Gabree Jennifer Gardner Carol Hanisch Anne Koedt Lynn Laredo Liz Levy Pearl Oil
p1894
aVRobinson Ellen Shatter Elizabeth Sutherland
p1895
aVStaughton Lynd
p1896
aVCosmopolitan MALE
p1897
aVLinda Le Clair
p1898
aVBarnard
p1899
aVStephanie
p1900
aVBlair Sobel
p1901
aVVogue
p1902
aVGrace
p1903
aVBill
p1904
aVRappaport
p1905
aVKarl Marx
p1906
aVMadame Law
p1907
aVKarl Marx
p1908
aVStaughton Lynd
p1909
aVWarren Hinkle
p1910
aVStaughton Lynd
p1911
aVLynd
p1912
aVJudith
p1913
aVGabree Additional
p1914
aVGeorge Sand
p1915
aVSusan Anthony
p1916
aVElizabeth Cady Stanton
p1917
aVAugusta Lewis
p1918
aVFanny Wright
p1919
aVLucretia Mott
p1920
aVElizabeth Cady Stanton
p1921
aVLouisa May Alcott
p1922
aVMargaret Fuller
p1923
aVScarlett
p1924
aVMyrtilla Miner
p1925
aVFlorence Nightingale
p1926
aVFanny Wright
p1927
aVSojourner Truth
p1928
aVInez Milholland
p1929
aVPrudence Crandall
p1930
aVErnestine Rose
p1931
aVAbigail Scott Duniway
p1932
aVHarriet Tubman
p1933
aVClara Lemlich
p1934
aVAlice Paul
p1935
aVNat Turner
p1936
aVRalph Bunche
p1937
aVGeorge Washington Carver
p1938
aVCarrie
p1939
aVChapman Catt
p1940
aVCarrie Chapman Catt
p1941
aVNettie Rogers Shuler
p1942
aVChas
p1943
aVSons
p1944
aVEleanor
p1945
aVFlexner
p1946
aVAunt Toms
p1947
aVEden
p1948
aVLurleen
p1949
aVWallace
p1950
aVMargaret
p1951
aVChase Smith
p1952
aVJackie Kennedy
p1953
aVLady Bird
p1954
aVFrances Willard
p1955
aVStanton
p1956
aVAnthony
p1957
aVStanton
p1958
aVAnthony
p1959
aVHarriet Stanton Blatch
p1960
aVElizabeth Cady Stanton
p1961
aVShulamith
p1962
aVFirestone R.
p1963
aVMommy
p1964
aVDaddy
p1965
aVMommy
p1966
aVDaddy
p1967
aVBaibara Brass
p1968
aVFreud
p1969
aVUsui
p1970
aVDenis
p1971
aVUougcmont
p1972
aVUs
p1973
aVReik
p1974
aVStanton
p1975
aVAnthony
p1976
aVAlter Ego
p1977
aVBiic
p1978
aVBaby
p1979
aVSimone
p1980
aVItcauvoir
p1981
aVReik
p1982
aVSimone
p1983
aVItcauvoir
p1984
aVReik
p1985
aVMmc
p1986
aVMatisse
p1987
aVMis
p1988
aVMattm Lu
p1989
aVGeorge Mylonas
p1990
aVSpock
p1991
aVVivian Gornick
p1992
aVDaytop
p1993
aVWilh
p1994
aVMan
p1995
aVMan
p1996
aVMan
p1997
aVHimself
p1998
aVMan
p1999
aVHei Mind
p2000
aVShulamith Firestone
p2001
aVPat Mainardi
p2002
aVLucille Iverson
p2003
aVAnne Koedt
p2004
aVAtkinson
p2005
aVRoxanne Dunbar
p2006
aVEllen Willis
p2007
aVEllen Willis
p2008
aVKnocks
p2009
aVCarol Hanisch
p2010
aVAnonymous
p2011
aVStale Olah
p2012
aVEllen Willis
p2013
aVCarol Hanisch
p2014
aVSarachild
p2015
aVIrene Peslikis
p2016
aVJennifer Gardner
p2017
aVPamela Kearon
p2018
aVCarol Hanisch
p2019
aVLucinda Cisler
p2020
aVBarbara Susan
p2021
aVMarion Davidson
p2022
aVBonnie Kreps
p2023
aVOlio
p2024
aVBarbara Mehrhof
p2025
aVPamela Kearon
p2026
aVHimself
p2027
aVMan
p2028
aVMan
p2029
aVIhe Oppressor
p2030
aVFreud
p2031
aVMary Ellman
p2032
aVFreud
p2033
aVMr. Ricff
p2034
aVFoi Freud
p2035
aVFreud
p2036
aVFreud
p2037
aVFrank
p2038
aVFreud
p2039
aVFreudians
p2040
aVMarie Bonaparte
p2041
aVKinsey
p2042
aVJohnson
p2043
aVLombard Kelly
p2044
aVMarried Men
p2045
aVKinsey
p2046
aVKelly
p2047
aVAtkinson
p2048
aVMette Ejlersen
p2049
aVFreud
p2050
aVAlbeit
p2051
aVAlfred C. Kinsey
p2052
aVMatie Bonaparte
p2053
aVAlbert
p2054
aVMarried Men
p2055
aVLombard Kelly
p2056
aVMetle Ejlersen
p2057
aVFrank S. Capiio
p2058
aVFawcctt Gold Medal Books The ABZ
p2059
aVInge
p2060
aVSten Hegeler
p2061
aVAlexict Corp
p2062
aVFreud
p2063
aVJohn Rawls
p2064
aVWebster
p2065
aVBeauvoii BITCH
p2066
aVPaul Klee
p2067
aVBclsy Warrior
p2068
aVCaste
p2069
aVFrederick Engels
p2070
aVMarx
p2071
aVEngels
p2072
aVDaniel
p2073
aVBrat
p2074
aVDave Dellingei
p2075
aVMobe
p2076
aVDliary
p2077
aVBitch
p2078
aVEllen
p2079
aVWillis HOT
p2080
aVKathie Sarachild
p2081
aVJames Baldwin
p2082
aVNegiues
p2083
aVMarx
p2084
aVFreud
p2085
aVJuliet Mitchell
p2086
aVEngels
p2087
aVIsvciuuic
p2088
aVBullshit
p2089
aVMarx
p2090
aVMat
p2091
aVMarx
p2092
aVMan
p2093
aVMarx
p2094
aVMat
p2095
aVMarx
p2096
aVMan
p2097
aVBitch
p2098
aVBeverly Jones
p2099
aVJudilh Brown
p2100
aVMil
p2101
aVFricdrich Engels
p2102
aVFidel Cast
p2103
aVMarcuse
p2104
aVIhcory
p2105
aVVance Packard
p2106
aVPackard
p2107
aVKail
p2108
aVHerbert Marcuse
p2109
aVErnest Van Den Haag
p2110
aVLady Sings
p2111
aVMarx
p2112
aVLenin
p2113
aVMao
p2114
aVDares
p2115
aVIheorj
p2116
aVSexus
p2117
aVSchmearguntz
p2118
aVMiss America
p2119
aVMiss America
p2120
aVMisss America
p2121
aVMiss America
p2122
aVRoses
p2123
aVMao
p2124
aVShana
p2125
aVAlexander
p2126
aVMiss America
p2127
aVCarol Giardino
p2128
aVRoz Baxandall
p2129
aVDavid Susskind
p2130
aVBui
p2131
aVPrince CharniingS
p2132
aVCaughl
p2133
aVLucinda
p2134
aVCisler
p2135
aVMew
p2136
aVBarbara Susan
p2137
aVAl
p2138
aVCare
p2139
aVBeauvoir
p2140
aVArlene Dab
p2141
aVFreud
p2142
aVFar
p2143
aVRoz Rcgelson
p2144
aVCharles Ferguson
p2145
aVSylvia Plath
p2146
aVArt
p2147
aVWonici
p2148
aVHan
p2149
aVStrength Power
p2150
aVBui
p2151
aVLucy Sione
p2152
aVLucy Sione
p2153
aVJohnston
p2154
aVJohnston
p2155
aVJohnston
p2156
aVJohnston
p2157
aVJohnstons
p2158
aVShirley MacLaines
p2159
aVSusan Sontags
p2160
aVJohnston
p2161
aVJill johnston
p2162
aVJohnston
p2163
aVSimone
p2164
aVBeauvoir
p2165
aVJudy Grahh
p2166
aVRita E. Hauser
p2167
aVKirk
p2168
aVJill Johnston
p2169
aVSusan Davis
p2170
aVDavis
p2171
aVEngels
p2172
aVElizabeth Gould Davis
p2173
aVJohnston
p2174
aVJill Johnston
p2175
aVJohnston
p2176
aVJohnston
p2177
aVJohnston
p2178
aVBetty Friedan
p2179
aVFrederick Engels
p2180
aVElizabeth Gould Davis
p2181
aVEngels
p2182
aVHenry Lewis Morgan
p2183
aVDavis
p2184
aVBachofen
p2185
aVEngels
p2186
aVEngels
p2187
aVEngels
p2188
aVBeauvoir
p2189
aVRoxanne Dunbar
p2190
aVFirestone
p2191
aVMarx
p2192
aVEngels
p2193
aVMarx
p2194
aVEngels
p2195
aVMarx
p2196
aVEngels
p2197
aVEngels
p2198
aVEngels
p2199
aVMargaret Mead
p2200
aVAnnchild My
p2201
aVDaddy
p2202
aVPenn Station
p2203
aVMr. Al
p2204
aVShirley Boccocio
p2205
aVMaxwell Ponte
p2206
aVPonte
p2207
aVHoney
p2208
aVHoney
p2209
aVFlo
p2210
aVPat
p2211
aVVirtue Hathaway
p2212
aVShirley
p2213
aVMaida Zylekirt
p2214
aVFrancis Sarri
p2215
aVWill Mueler
p2216
aVSarri
p2217
aVMueler
p2218
aVMueler
p2219
aVPonte
p2220
aVPonte
p2221
aVCharlie
p2222
aVCharlie
p2223
aVMueler
p2224
aVMueler
p2225
aVPonte
p2226
aVWill
p2227
aVPonte
p2228
aVLarry Seizel
p2229
aVLarry Seizel
p2230
aVRobert Younger
p2231
aVMueler
p2232
aVYounger
p2233
aVLarry Seizel
p2234
aVMr. Seizel
p2235
aVYounger
p2236
aVSeizel
p2237
aVMueler
p2238
aVSeizel
p2239
aVMueler
p2240
aVSeizel
p2241
aVLarry-babe
p2242
aVYounger
p2243
aVMueler
p2244
aVWill
p2245
aVSeizel
p2246
aVSeizel
p2247
aVSeizel
p2248
aVMueler
p2249
aVMueler
p2250
aVSavid
p2251
aVGrill
p2252
aVChablis
p2253
aVMueler
p2254
aVMueler
p2255
aVSeizel
p2256
aVMueler
p2257
aVBob
p2258
aVFarin
p2259
aVBob
p2260
aVFarin
p2261
aVBob Farin
p2262
aVShirley
p2263
aVBob
p2264
aVBob
p2265
aVFarin
p2266
aVFlo Kennedy
p2267
aVFlo
p2268
aVMick Carter
p2269
aVMick
p2270
aVCarter
p2271
aVPonte
p2272
aVPonte
p2273
aVBob Farin
p2274
aVMick Carter
p2275
aVBob Farin
p2276
aVPonte
p2277
aVMr. Farin
p2278
aVBob Farin
p2279
aVBob
p2280
aVBob
p2281
aVPeter
p2282
aVLarry Seizel
p2283
aVElizabeth Diggs
p2284
aVRoses
p2285
aVJohnston
p2286
aVAtkinson
p2287
aVRita Mae Brown
p2288
aVJane
p2289
aVAlpert
p2290
aVRobin Morgan
p2291
aVCandy Mountain
p2292
aVDiggs
p2293
aVKoedt
p2294
aVBernstein
p2295
aVBernstein
p2296
aVLuxemburg
p2297
aVKathie Sarachild Feminist
p2298
aVBetty
p2299
aVAnne Koedt
p2300
aVMargaret Mead
p2301
aVDE BURGOS
p2302
aVNail
p2303
aVArt
p2304
aVMargaret Sanger
p2305
aVSimone de Beauvoir
p2306
aVAnne Forer Comments
p2307
aVHudson River Sloop
p2308
aVStarry
p2309
aVFool
p2310
aVYonker
p2311
aVDon McLean
p2312
aVCarol H
p2313
aVBronco Bills Lament
p2314
aVBaby
p2315
aVArtist
p2316
aVBetty Friedan
p2317
aVNelson Rockefeller
p2318
aVKathie Sarachild
p2319
aVForman
p2320
aVWarren Farrell
p2321
aVMarc Feigen Fasteau
p2322
aVCyndy Heimel
p2323
aVDavid Hoffman
p2324
aVCoiette Price
p2325
aVMarc Feigen Fasteau
p2326
aVGloria Steinem
p2327
aVAnn
p2328
aVSusan
p2329
aVPaul
p2330
aVAnn
p2331
aVTom
p2332
aVKen
p2333
aVMary
p2334
aVSusan
p2335
aVAnn
p2336
aVJoe
p2337
aVMary
p2338
aVKen
p2339
aVAnn
p2340
aVAnn
p2341
aVKen
p2342
aVAnn
p2343
aVAnn
p2344
aVSusan
p2345
aVPaul
p2346
aVPaul
p2347
aVMichele Wallace Feminist
p2348
aVCarol Hanisch
p2349
aVCarl Braden
p2350
aVWalter Collins
p2351
aVAnne
p2352
aVCarl Braden
p2353
aVWalter Collins
p2354
aVAnne
p2355
aVCarmichael
p2356
aVBob Zellner
p2357
aVAnne
p2358
aVAnne
p2359
aVCarol Hanisch
p2360
aVShulamith Firestone
p2361
aVJoseph Waller
p2362
aVReagan
p2363
aVWaller
p2364
aVCarol Hanisch
p2365
aVMarx
p2366
aVLenin
p2367
aVMao
p2368
aVMao
p2369
aVGreg Calvert
p2370
aVPhilip
p2371
aVFoner
p2372
aVKathie Sarachild
p2373
aVPhilip S. Foncr
p2374
aVWilliam Hinton
p2375
aVMao Tsetung
p2376
aVMonogamy Borboro Leon
p2377
aVEngels
p2378
aVJames Baldwin
p2379
aVNikki Giovanni
p2380
aVMarge Piercy
p2381
aVLucy Leu Interviews Michimi
p2382
aVLine Borboro
p2383
aVEllen Levine
p2384
aVHole
p2385
aVMarcuse
p2386
aVMarcuse
p2387
aVCarol
p2388
aVHanisch
p2389
aVColette
p2390
aVPatricia Mainardi
p2391
aVWilliam Rubin
p2392
aVArt
p2393
aVEllen Willis
p2394
aVKathie Sarachild
p2395
aVIrene Peslikis
p2396
aVEllen Willis
p2397
aVBarbara Leon
p2398
aVBabe
p2399
aVJudith Brown
p2400
aVCarol Hanisch
p2401
aVColette Price
p2402
aVPatricia Mainardi
p2403
aVWilliam Rubin
p2404
aVJuanity McNeely
p2405
aVPaul Mocsanyi
p2406
aVMary Cassatt
p2407
aVDuncan Cameron
p2408
aVHanrlsch
p2409
aVGloria Steinem
p2410
aVSteinem
p2411
aVSteinem
p2412
aVSteinem
p2413
aVCurtain
p2414
aVSteinem
p2415
aVSteinem
p2416
aVSteinem
p2417
aVPravda
p2418
aVSteinem
p2419
aVSteinem
p2420
aVBebchick
p2421
aVLeonard Bebchick
p2422
aVPaul
p2423
aVSteinem
p2424
aVSteinem
p2425
aVGloria Steinem
p2426
aVBoard
p2427
aVWhok Who
p2428
aVSteinem
p2429
aVGloria Steinem
p2430
aVSteinem
p2431
aVClay Felker
p2432
aVFelker
p2433
aVFelker
p2434
aVFelker
p2435
aVSteinem
p2436
aVFelker
p2437
aVFelker
p2438
aVFelker
p2439
aVSteinem
p2440
aVMar
p2441
aVLeo
p2442
aVSteinem
p2443
aVSmith
p2444
aVChester Bowles Asian
p2445
aVHarper
p2446
aVCurtis
p2447
aVNast
p2448
aVStevenson
p2449
aVKennedy
p2450
aVGuild
p2451
aVGuild Am
p2452
aVNat
p2453
aVSterling
p2454
aVSteinem
p2455
aVSteinem
p2456
aVMar
p2457
aVLeo
p2458
aVSteinem
p2459
aVSmith
p2460
aVChester Bowles Asian
p2461
aVHarper
p2462
aVCurtis
p2463
aVConde
p2464
aVStevenson
p2465
aVKennedy
p2466
aVGuild
p2467
aVSterling Lord Agy
p2468
aVPatricia Carbine
p2469
aVGloria Steinem
p2470
aVEditor
p2471
aVSuzanne Levine
p2472
aVGloria Steinem
p2473
aVPatricia
p2474
aVKatharine Graham
p2475
aVElizabeth
p2476
aVHarris
p2477
aVWarner
p2478
aVPatricia Carbine
p2479
aVAlier
p2480
aVPatricia
p2481
aVFelker
p2482
aVSteinem
p2483
aVSam Antupit
p2484
aVFelker
p2485
aVFelker
p2486
aVFelker
p2487
aVKennedy
p2488
aVGloria Steinem
p2489
aVPat Carbine
p2490
aVGloria Steinem
p2491
aVClay Felker
p2492
aVKatharine Graham
p2493
aVGraham
p2494
aVGloria Steinem
p2495
aVSteven J. Ross
p2496
aVWarner
p2497
aVWilliam Sarnoff
p2498
aVWonder Woman
p2499
aVWamer
p2500
aVWonder Woman
p2501
aVJoanne Edgar
p2502
aVWonder Woman
p2503
aVWonder Woman
p2504
aVWonder Woman
p2505
aVWonder Woman
p2506
aVWarner
p2507
aVWonder Woman
p2508
aVDiana Prince
p2509
aVAugie March
p2510
aVRuth Steinem
p2511
aVLeo
p2512
aVGloria
p2513
aVSteinem
p2514
aVGloria Steinem
p2515
aVMiss Steinem
p2516
aVElizabeth
p2517
aVGould Davis
p2518
aVDita Beard
p2519
aVDavis
p2520
aVAmy Swerdlow
p2521
aVSteinem
p2522
aVPhillips Stewart Turner
p2523
aVPhillips Stewart Turner
p2524
aVGloria Steinem
p2525
aVPat Carbine
p2526
aVMichael Wood RAMPARTS
p2527
aVSteinem
p2528
aVSloan
p2529
aVMarin
p2530
aVUnsung Heroes
p2531
aVGloria Steinem
p2532
aVSusan B. Anthony
p2533
aVGloria Steinem
p2534
aVGloria Steinem
p2535
aVJohn
p2536
aVFranklin
p2537
aVThomas
p2538
aVPoliceman Woods
p2539
aVWoods
p2540
aVForman LIBERA
p2541
aVGloria Steinem
p2542
aVSachem Fund
p2543
aVCarol Buttenweisor
p2544
aVGloria Steinem
p2545
aVShirley Chisholm
p2546
aVSteinem
p2547
aVSteinem
p2548
aVJohn
p2549
aVRockefeller Ill
p2550
aVPat Carbine
p2551
aVSteinem
p2552
aVBeauvoir ALL
p2553
aVSimone
p2554
aVBeauvoir
p2555
aVGloria Steinem
p2556
aVSimone
p2557
aVBeauvoir
p2558
aVAnn Roberts
p2559
aVRoberts
p2560
aVHoward Hunt
p2561
aVHunt
p2562
aVDonald Santarelli
p2563
aVMaynard Jackson
p2564
aVUncle Tom
p2565
aVSteinem
p2566
aVElizabeth Cody Stanton
p2567
aVBorboro Leon
p2568
aVRuby Doris Smith Robinson
p2569
aVShulamith Firestone
p2570
aVPam
p2571
aVAllen
p2572
aVPam Allen
p2573
aVLester
p2574
aVCarol Hanisch Feminist
p2575
aVKathie Amatniek
p2576
aVSarachild
p2577
aVKathie Amatniek
p2578
aVPowerful
p2579
aVElizabeth Gould Davis
p2580
aVDavis
p2581
aVJill
p2582
aVJohnston
p2583
aVDavis
p2584
aVJohnston
p2585
aVJohnston
p2586
aVSalaff
p2587
aVMilton
p2588
aVJanet Salaff
p2589
aVJudith Merkle
p2590
aVMilton
p2591
aVFrieda
p2592
aVJulius Lester
p2593
aVNader
p2594
aVCarl Dreyer
p2595
aVMarlene
p2596
aVMarlene
p2597
aVMr. Fixit
p2598
aVDoll
p2599
aVGeorge Sorel
p2600
aVBill
p2601
aVLords
p2602
aVJoseph Mazzini
p2603
aVKeir Hardie
p2604
aVKeir Hardie
p2605
aVRay Strachey
p2606
aVEmmeline Pankhurst
p2607
aVEmmeline
p2608
aVPankhurst
p2609
aVChristabel
p2610
aVPankhurst
p2611
aVLady Constance Lytton
p2612
aVHerbert Asquith
p2613
aVWinston
p2614
aVChurchill
p2615
aVLord Curzon
p2616
aVChristabel Pankhurst
p2617
aVEmmeline
p2618
aVEmmeline Pankhurst
p2619
aVQueen Victoria
p2620
aVLunt
p2621
aVHavighurst
p2622
aVStenton
p2623
aVEnsor
p2624
aVSmith
p2625
aVDavid E. Owen
p2626
aVEmily Davison
p2627
aVDerby
p2628
aVRay
p2629
aVLady Lytton
p2630
aVSusan
p2631
aVAnthony
p2632
aVPankhurst
p2633
aVPankhurst
p2634
aVCatherine St.
p2635
aVHenry
p2636
aVJames
p2637
aVOlive Chancellor
p2638
aVBasil Ransom
p2639
aVGeorge Bernard Shaw
p2640
aVSuperman
p2641
aVAnna Shaw
p2642
aVPankhurst
p2643
aVStrachey
p2644
aVHearty
p2645
aVAnnie Kenney
p2646
aVLloyd George
p2647
aVBill
p2648
aVLloyd George
p2649
aVWinston Churchill
p2650
aVPankhurst
p2651
aVDavison
p2652
aVAil
p2653
aVChristabel
p2654
aVHerbert
p2655
aVEmmeline Pankhurst
p2656
aVDuer Miller
p2657
aVNixon
p2658
aVStone Chrome Silver Clay
p2659
aVStone Chrome Silver Clay Aesthetic
p2660
aVStone Chrome Silver Clay Institutions Symbolizing Reality
p2661
aVSilver
p2662
aVStone
p2663
aVChrome
p2664
aVMary
p2665
aVEllen Gale
p2666
aVMeg Gale
p2667
aVKathie Amatniek
p2668
aVStalinist
p2669
aVKathie
p2670
aVAmatniek
p2671
aVAmatniek
p2672
aVSimone
p2673
aVBeauvoir
p2674
aVSimone
p2675
aVHarvard
p2676
aVJohn Kenneth Galbraith
p2677
aVMahoney
p2678
aVJoan McPartlin
p2679
aVKathie Amatniek
p2680
aVJoan McPartIin
p2681
aVJoan McPartlin
p2682
aVLinda
p2683
aVJames
p2684
aVJudy Edelman
p2685
aVMailer
p2686
aVEngels
p2687
aVAtkinson
p2688
aVLynn Phillips
p2689
aVRita Mae Brown
p2690
aVDavid Susskind
p2691
aVOlive Schreiner
p2692
aVChavez
p2693
aVChavez
p2694
aVChavez
p2695
aVStudies Patricia Moinordi The Women
p2696
aVLucy Lippard
p2697
aVJudy Chicago
p2698
aVLucy Lippart
p2699
aVLucy Lippard
p2700
aVLinda Nochlin
p2701
aVMichelangelo
p2702
aVDelacroix
p2703
aVPicasso
p2704
aVMatisse
p2705
aVLenor
p2706
aVMacon
p2707
aVMary
p2708
aVLou Greenberg
p2709
aVMary Lou Greenberg
p2710
aVLenin
p2711
aVHenry Red Women
p2712
aVMary Lou Greenberg
p2713
aVBeauvoir
p2714
aVUnknown Italian Woman
p2715
aVMariza
p2716
aVAnderson
p2717
aVNixon
p2718
aVJohnson
p2719
aVNixon
p2720
aVNixon
p2721
aVGray
p2722
aVEllsberg
p2723
aVMitchell
p2724
aVYellows
p2725
aVRobin Reisig
p2726
aVPatricia Mainardi
p2727
aVKathie Sarachild
p2728
aVMainardi
p2729
aVReisig
p2730
aVClay Felker
p2731
aVMainardi
p2732
aVSarachild
p2733
aVSarachild
p2734
aVMainardi
p2735
aVSarachild
p2736
aVSarachild
p2737
aVQuilts
p2738
aVQuilts
p2739
aVCindy Nemser
p2740
aVAlice Neel
p2741
aVSarachild
p2742
aVLettie Pogrebin
p2743
aVGloria Steinem
p2744
aVSteinem
p2745
aVMary Peacock
p2746
aVSarachildz
p2747
aVSarachild
p2748
aVRachel Carson
p2749
aVJessica Mitford-
p2750
aVSarachildz Or Frankenstein
p2751
aVBeauvoir
p2752
aVBetty F
p2753
aVShirley Chisholm
p2754
aVPowerful
p2755
aVHandbook
p2756
aVBill
p2757
aVNixon
p2758
aVGloria Steinem
p2759
aVClinic Colette
p2760
aVCarol Downer
p2761
aVLorraine Rothman
p2762
aVDowner
p2763
aVCarol Downer
p2764
aVLorraine Rothman
p2765
aVCarol
p2766
aVCarol
p2767
aVLorraine
p2768
aVLorraine
p2769
aVCarol
p2770
aVIaws
p2771
aVHarvey Karman
p2772
aVCarol
p2773
aVCarol
p2774
aVCarol
p2775
aVCarol
p2776
aVEllen Frankfort
p2777
aVJanet Sawyer
p2778
aVMartha Zwei Vermont
p2779
aVWell
p2780
aVMargaret Mead
p2781
aVCarol
p2782
aVBessie Wright
p2783
aVLorraine Rothman
p2784
aVFrancie Hornstein
p2785
aVPaid Labor Colette
p2786
aVAunt Hilda
p2787
aVJane Trahey
p2788
aVAunt HiIda
p2789
aVCaroline Bird
p2790
aVHelen S. Astin
p2791
aVEleanor Simpson
p2792
aVAnita Cherry
p2793
aVDiana Baldwin
p2794
aVEmile Zola
p2795
aVMarx
p2796
aVJones
p2797
aVHerbert Stein
p2798
aVStein
p2799
aVEdward Gross*
p2800
aVMary Vogel
p2801
aVAbbott L. Ferris
p2802
aVLou Scotto
p2803
aVAlana Mac Farlane
p2804
aVDina Acha
p2805
aVBuil
p2806
aVBarbara Bergman
p2807
aVBergman
p2808
aVJuanita
p2809
aVCaroline
p2810
aVBorn
p2811
aVKathie Sarcrchild
p2812
aVEither White
p2813
aVMeiii Era
p2814
aVTaisho Eras
p2815
aVKiyoshi
p2816
aVEmma Nutt
p2817
aVCulver
p2818
aVGeorge Gilder
p2819
aVGilder
p2820
aVLouise Bernikow
p2821
aVCarmen
p2822
aVCarmen
p2823
aVCarmen
p2824
aVGloria Steinem
p2825
aVSmart
p2826
aVRich
p2827
aVSarah
p2828
aVNixon
p2829
aVEileen Shanahan
p2830
aVOakes
p2831
aVOakes
p2832
aVShanahan
p2833
aVBull
p2834
aVRoosevelt
p2835
aVFrances Perkins
p2836
aVJoan Ellen Trey
p2837
aVSheila Tobias
p2838
aVLisa Anderson
p2839
aVShirley
p2840
aVVincent
p2841
aVMontenegro
p2842
aVMatilda Gage
p2843
aVStare
p2844
aVRichard Lester
p2845
aVLester
p2846
aVLester
p2847
aVHuey Newton
p2848
aVMr. Mahling
p2849
aVLester
p2850
aVCaroline Bird
p2851
aVGloria Steinem
p2852
aVCossa
p2853
aVCaroline
p2854
aVBird
p2855
aVKathie Sarachild
p2856
aVSarachild
p2857
aVKothie
p2858
aVAnn Forer
p2859
aVAnn
p2860
aVAnn
p2861
aVAnn
p2862
aVAnn Forer
p2863
aVCarol Hanisch
p2864
aVCarol
p2865
aVCarmichael
p2866
aVShulamith Firestone
p2867
aVAnne Koedt
p2868
aVPat Mainardi
p2869
aVCarol Hanisch
p2870
aVCindy Cisier
p2871
aVRosalyn Baxandall
p2872
aVIrene Peslikis
p2873
aVEllen Willis
p2874
aVRobin Morgan
p2875
aVWilliam
p2876
aVGilbert Preface
p2877
aVErnestine Rose
p2878
aVMao Tsetung
p2879
aVHenry Kissinger
p2880
aVMichal Goldman
p2881
aVPicasso Black
p2882
aVMichal Goldman
p2883
aVRose
p2884
aVNkrumah
p2885
aVCarmichael AKWESASNE NOTES
p2886
aVKathie Sarachild
p2887
aVShulamith Firestone
p2888
aVCarol Hanisch
p2889
aVFirestone
p2890
aVIrene Peslikis
p2891
aVTanner
p2892
aVRozak
p2893
aVEpstein
p2894
aVTanner
p2895
aVJennifer Gardner
p2896
aVNail
p2897
aVTanner
p2898
aVLynn O'Connor
p2899
aVNail
p2900
aVRozak
p2901
aVRozak
p2902
aVShulamith Firestone
p2903
aVTanner
p2904
aVCarol Hanisch
p2905
aVElizabeth Sutherland Martinez
p2906
aVJudith Brown
p2907
aVTanner
p2908
aVMalcolm
p2909
aVGeorge Breitman
p2910
aVWilliam Hinton
p2911
aVAnne Bradstreet
p2912
aVShulamith Firestone
p2913
aVIsaac Newton
p2914
aVTaylor Mill
p2915
aVPowerful
p2916
aVBeverly Jones
p2917
aVToward
p2918
aVRuby Doris Smith Robinson
p2919
aVGloria Martin
p2920
aVJames
p2921
aVEdith Hoshino Altbach
p2922
aVIda Phillips
p2923
aVPhillips
p2924
aVMartin
p2925
aVMartha C. Wright
p2926
aVMary Wollstonecraft
p2927
aVFrances Wright
p2928
aVErnestine L. Rose
p2929
aVLucretia Mott
p2930
aVElizabeth Cady Stanton
p2931
aVSusan B. Anthony
p2932
aVWendell Phillips
p2933
aVBeauvoir
p2934
aVCisler
p2935
aVCisler
p2936
aVLucinda Cisler3
p2937
aVCasey Hayden
p2938
aVMary King
p2939
aVAnn Koedt
p2940
aVCarol Hanisch
p2941
aVElizabeth Sutherland
p2942
aVShulamlth Firestone
p2943
aVBeverly Jones
p2944
aVBrown
p2945
aVLeslie Tanner
p2946
aVRoxanne Dunbar
p2947
aVDana Densmore
p2948
aVNos
p2949
aVFirestone
p2950
aVKoedt
p2951
aVRoses
p2952
aVKathy McAfee
p2953
aVMyrna Wood
p2954
aVEllen Willis
p2955
aVTanner
p2956
aVMarlene Dixon
p2957
aVRobin Morgan
p2958
aVFirestone
p2959
aVCatherine Henry
p2960
aVJuliet Mitchell
p2961
aVArt
p2962
aVNelson
p2963
aVColette Price
p2964
aVMargaret Reynolds
p2965
aVDelia Anderson
p2966
aVCarol Hanisch
p2967
aVEileen Shanahan
p2968
aVShanahan
p2969
aVShanahan
p2970
aVShanahan
p2971
aVShanahan
p2972
aVShulamith Firestone
p2973
aVFirestone
p2974
aVFirestone
p2975
aVFirestone
p2976
aVFirestone
p2977
aVSimone de Beauvoir
p2978
aVFirestone
p2979
aVBeauvoir
p2980
aVBetty Friedan
p2981
aVSimone
p2982
aVBeauvoir
p2983
aVBetty Friedan
p2984
aVFriedan
p2985
aVBeauvoir
p2986
aVStanton
p2987
aVAnthony
p2988
aVBeauvoir
p2989
aVBeauvoir
p2990
aVSimone
p2991
aVBeauvoir
p2992
aVBeauvoir
p2993
aVShulamith Firestone
p2994
aVBeauvoir
p2995
aVElizabeth Cady Stanton
p2996
aVSusan B. Anthony
p2997
aVMatilda Gage
p2998
aVSusan B. Anthony
p2999
aVElizabeth Cady Stanton
p3000
aVSojourner Truthor
p3001
aVDavis
p3002
aVBetty Friedan
p3003
aVSimone
p3004
aVBeauvoir
p3005
aVFriedan
p3006
aVVirgilia Peterson
p3007
aVSimone
p3008
aVBeauvoir
p3009
aVBeauvoir
p3010
aVBeauvoir
p3011
aVBeauvolr
p3012
aVBeauvoir
p3013
aVMarx
p3014
aVFriedan
p3015
aVGloria Steinem
p3016
aVGloria Steinem
p3017
aVClementina Reid
p3018
aVMatilda
p3019
aVGage
p3020
aVTime
p3021
aVRita Mae Brown
p3022
aVAtkinson
p3023
aVNicholas Hoffman Fall
p3024
aVLenin
p3025
aVGloria Steinem
p3026
aVSteinem
p3027
aVSteinem
p3028
aVCoiette
p3029
aVLucinda Cisler
p3030
aVKathie Sarachild
p3031
aVCarol Hanisch
p3032
aVCisler
p3033
aVPeggy Grau
p3034
aVCarol Downer
p3035
aVLorraine Rothman
p3036
aVCarol Downer
p3037
aVLorraine Rothman
p3038
aVCarol
p3039
aVLorraine
p3040
aVLorraine Rothman
p3041
aVGrady
p3042
aVHarvard Professor
p3043
aVTom Hayden
p3044
aVHcmisch November
p3045
aVStanton
p3046
aVAnthony
p3047
aVStanton
p3048
aVAnthony
p3049
aVGage
p3050
aVAnthony
p3051
aVHarper
p3052
aVStanton
p3053
aVAnthony
p3054
aVStanton
p3055
aVAnthony
p3056
aVBetty
p3057
aVEleanor
p3058
aVFlexner
p3059
aVFlexner
p3060
aVAnthony
p3061
aVFlexner
p3062
aVAnthony
p3063
aVGage
p3064
aVStanton
p3065
aVMiss Anthony
p3066
aVFlexner
p3067
aVFlexner
p3068
aVFlexner
p3069
aVHarper
p3070
aVHarper
p3071
aVMatilda Gage
p3072
aVElizabeth Cady Stanton
p3073
aVHarper
p3074
aVAnthony
p3075
aVStanton
p3076
aVAnthony
p3077
aVGage
p3078
aVAlice Paul
p3079
aVStanton
p3080
aVAnthony
p3081
aVGage
p3082
aVFlexner
p3083
aVFlexner
p3084
aVFlexner
p3085
aVKathie Sarachild
p3086
aVStanton
p3087
aVAnthony
p3088
aVGage
p3089
aVFlexner
p3090
aVAnthony
p3091
aVGage
p3092
aVFlexner
p3093
aVArthur M. Schlesinger
p3094
aVAndrew Sinclair
p3095
aVFlexner
p3096
aVStanton
p3097
aVLeslie Tanner Redstockin
p3098
aVTanner
p3099
aVAnthony
p3100
aVGage
p3101
aVStanton
p3102
aVAnthony
p3103
aVGage
p3104
aVStanton
p3105
aVAnthony
p3106
aVGage
p3107
aVHarper
p3108
aVFlexner
p3109
aVPaulina Wright Davis
p3110
aVStanton
p3111
aVKathie Sarachild
p3112
aVCross
p3113
aVClaudine Serre
p3114
aVKothie
p3115
aVSorochild NEW
p3116
aVNixon
p3117
aVMao Tsetung
p3118
aVFrantz Fanon
p3119
aVCarol Giardina
p3120
aVStokeiy Carmichael
p3121
aVFelix Greene
p3122
aVReally Want Kathie Sarachild
p3123
aVReally Want Kathie Sarachild
p3124
aVMartha Shelley
p3125
aVMartha Shelley
p3126
aVHolstein
p3127
aVPatricicr Mainardi
p3128
aVHonorary Keeper
p3129
aVCharles A. Ditmas
p3130
aVHarvard
p3131
aVDitmas
p3132
aVJjames Shapiro
p3133
aVKothie Sorochild
p3134
aVBob Moses
p3135
aVBob Parris
p3136
aVNomes
p3137
aVOlive Schreiner
p3138
aVMary Aldhnm
p3139
aVMr. Henry James
p3140
aVEthel
p3141
aVGwendoline Cook
p3142
aVQueen
p3143
aVOliver Killens
p3144
aVHiratsuka Raicho
p3145
aVHiratsuka
p3146
aVYosano Akikos
p3147
aVSarto
p3148
aVSeito
p3149
aVSeito
p3150
aVEdith
p3151
aVMovimento Femminista
p3152
aVAborto Libero
p3153
aVGigliola Pierobon
p3154
aVLola
p3155
aVLupari
p3156
aVLola
p3157
aVMan
p3158
aVLola
p3159
aVTu
p3160
aVLei
p3161
aVLola
p3162
aVLola
p3163
aVBianca
p3164
aVGuidetti Serra
p3165
aVLola
p3166
aVLola
p3167
aVLola
p3168
aVMarie Claire Chevalier
p3169
aVLola
p3170
aVLola
p3171
aVLola
p3172
aVLola
p3173
aVRocco
p3174
aVGigliola Pierobons
p3175
aVTattilo
p3176
aVLara
p3177
aVLola
p3178
aVWelfare Women
p3179
aVHews
p3180
aVHelsinki Youth News
p3181
aVGloria Steinem
p3182
aVClay Felker
p3183
aVHelsinki
p3184
aVGloria Steinem
p3185
aVSteinems CIA
p3186
aVSteinem
p3187
aVSteinem
p3188
aVSteinem
p3189
aVWilliam Colby
p3190
aVDan Ellsberg
p3191
aVSteinem
p3192
aVDennis Shaul
p3193
aVAl Lowenstein
p3194
aVTom Hayden
p3195
aVTom Hayden
p3196
aVSteinem
p3197
aVHayden
p3198
aVDennis
p3199
aVSteinem
p3200
aVCloudine Serre
p3201
aVClaudine
p3202
aVSimone
p3203
aVToms
p3204
aVLe Torchon Brule
p3205
aVKathie
p3206
aVAlix
p3207
aVAnna Karina
p3208
aVShulamith Firestones
p3209
aVLeslie Tanner
p3210
aVJoyce
p3211
aVJoyce
p3212
aVSteinem
p3213
aVSteinem
p3214
aVSteinem
p3215
aVLed
p3216
aVAlix Shulman
p3217
aVSusan Sherman
p3218
aVSteinem
p3219
aVSteinem
p3220
aVSteinem
p3221
aVSteinems
p3222
aVSteinem
p3223
aVSteinems
p3224
aVGloria M. Steinem
p3225
aVDirector
p3226
aVLeonard N. Bebchick
p3227
aVPaul E. Sigmund
p3228
aVSteinen_1
p3229
aVSteinem
p3230
aVGloria M. Steinem
p3231
aVGloria Steinem
p3232
aVSteinems
p3233
aVSteinerns
p3234
aVSteinem
p3235
aVSteinem
p3236
aVSteinem
p3237
aVSteinem
p3238
aVDorr
p3239
aVJoseph Welch
p3240
aVJames St. Clair
p3241
aVGloria Steinem
p3242
aVGeorge
p3243
aVRichard Medalee
p3244
aVSteinem
p3245
aVSmith
p3246
aVPublic Library
p3247
aVAundnion
p3248
aVBctdlkl Paschal
p3249
aVWald
p3250
aVMin
p3251
aVSteinem Mi
p3252
aVIlelnlilhul
p3253
aVImrn
p3254
aVRrldillllli Pb
p3255
aVMin Steinem
p3256
aVDram
p3257
aVIor Johnson
p3258
aVShani
p3259
aVStella Iu
p3260
aVFuvtnl
p3261
aVIll
p3262
aVFrag
p3263
aVPaul Sigmund
p3264
aVGloria Steinem
p3265
aVSteinem
p3266
aVSteinem
p3267
aVSteinem
p3268
aVSteinem
p3269
aVSteinem
p3270
aVGloria Steinem
p3271
aVGtosul M. Srurttuu
p3272
aVLsomutn N.
p3273
aVRtrrmb Rafter
p3274
aVVirmra
p3275
aVTreasurer
p3276
aVEd
p3277
aVBahomonde
p3278
aVArgentine
p3279
aVFrondizi
p3280
aVFrondizi
p3281
aVMalcolm X
p3282
aVChe Guevara
p3283
aVDoris Wright
p3284
aVBlack Women
p3285
aVMargaret Sloan
p3286
aVDoris Wright
p3287
aVMargaret Sloan
p3288
aVMargaret Sloan
p3289
aVMargaret
p3290
aVShirley Chisholm
p3291
aVSimone
p3292
aVBetty Friedan
p3293
aVElizabeth Gould Davis Naval Intelligence
p3294
aVGloria Steinem Warren Farrell
p3295
aVWarren Farrell
p3296
aVWillis August
p3297
aVSteinem
p3298
aVGloria Steinem
p3299
aVAlpert
p3300
aVAlpert
p3301
aVRobin
p3302
aVJane
p3303
aVGloria Steinem
p3304
aVSteinems
p3305
aVSteinem
p3306
aVUncle Tom
p3307
aVSteinem
p3308
aVElizabeth
p3309
aVCady Stanton
p3310
aVStanton
p3311
aVAnthony
p3312
aVGage
p3313
aVKathie Sarachild
p3314
aVGloria M. Steinem
p3315
aVHerbert Hill
p3316
aVSroiaehr
p3317
aVMalcolm X F
p3318
aVMALCOLM
p3319
aVHanisch
p3320
aVORGASM Anne Koedt
p3321
aVJEANNETTE
p3322
aVRANKIN
p3323
aVROZ
p3324
aVJEANETTE
p3325
aVRANKIN
p3326
aVSTAUGHTON
p3327
aVMONTH Helen Gurley Brown
p3328
aVHarrington
p3329
aVLynd
p3330
aVKate Mullaney
p3331
aVGrimke
p3332
aVGrimke Sisters
p3333
aVFlexnor
p3334
aVSHULAMITH
p3335
aVLiberated Woman
p3336
aVLiberated Woman
p3337
aVFemale Junkie Speaks
p3338
aVLUCILLE
p3339
aVMeredith Tax
p3340
aVANNE
p3341
aVEllis
p3342
aVJeg Anklager
p3343
aVValerie Solanas
p3344
aVJOREEN
p3345
aVROXANNE
p3346
aVMoynihan
p3347
aVELLEN
p3348
aVELLEN
p3349
aVCAROL
p3350
aVMeredith March
p3351
aVSenator Eastland
p3352
aVMcSorley
p3353
aVSUZIE
p3354
aVBird
p3355
aVELLEN
p3356
aVMarcuse
p3357
aVCAROL
p3358
aVKATHIE
p3359
aVIRENE
p3360
aVPAMELA
p3361
aVCAROL
p3362
aVMEREDITH
p3363
aVBARBARA
p3364
aVMARION
p3365
aVBONNIE
p3366
aVBARBARA
p3367
aVPAMELA
p3368
aVMALCOLM
p3369
aVHanisch
p3370
aVORGASM Anne Koedt
p3371
aVJEANNETTE
p3372
aVRANKIN
p3373
aVROZ
p3374
aVJEANETTE
p3375
aVRANKIN
p3376
aVSTAUGHTON
p3377
aVMONTH Helen Gurley Brown
p3378
aVHarrington
p3379
aVLynd
p3380
aVKate Mullaney
p3381
aVGrimke
p3382
aVGrimke Sisters
p3383
aVFlexnor
p3384
aVSHULAMITH
p3385
aVLiberated Woman
p3386
aVLiberated Woman
p3387
aVLUCILLE
p3388
aVMeredith Tax
p3389
aVIhe Oppressor
p3390
aVANNE
p3391
aVKinssey
p3392
aVEllis
p3393
aVJeg Anklager
p3394
aVValerie Solanas
p3395
aVJOREEN
p3396
aVROXANNE
p3397
aVMoynihan
p3398
aVELLEN
p3399
aVELLEN
p3400
aVCAROL
p3401
aVMeredith March
p3402
aVSenalor Eastland
p3403
aVKant
p3404
aVSUZIE
p3405
aVELLEN
p3406
aVCAROL
p3407
aVKATHIE
p3408
aVKATHIE
p3409
aVIRENE
p3410
aVJENNIFER
p3411
aVPAMELA
p3412
aVCAROL
p3413
aVMEREDITH
p3414
aVBARBARA
p3415
aVMARION
p3416
aVBONNIE
p3417
aVDeBeauvoir
p3418
aVBARBARA
p3419
aVPAMELA
p3420
aVIhe Oppressor
p3421
aVIhe Oppressor
p3422
aVMacLaine
p3423
aVFlo Kennedy
p3424
aVMueler
p3425
aVRetreat To Culturol Feminism Brooke
p3426
aVEDUARD
p3427
aVBERNSTEIN
p3428
aVSteinem
p3429
aVFriedan
p3430
aVSHIRLEY
p3431
aVBOCCACCIO
p3432
aVJULIA
p3433
aVANNE
p3434
aVFORER
p3435
aVCAROL
p3436
aVHANISCH
p3437
aVHELEN
p3438
aVBARBARA
p3439
aVFAYE
p3440
aVLEVINE
p3441
aVPATRICIA
p3442
aVMAINARDI
p3443
aVROSARIO
p3444
aVMORALES
p3445
aVELIZABETH
p3446
aVJOYCE
p3447
aVCOLETTE
p3448
aVKATHIE
p3449
aVKATHIE
p3450
aVEDITH
p3451
aVSCHLOSS
p3452
aVCLAUDINE
p3453
aVMICHELE
p3454
aVELLEN
p3455
aVMcLean
p3456
aVSuperintendent
p3457
aVHelen Reddy
p3458
aVLiberation Corol Honisch
p3459
aVWARREN
p3460
aVHuey Newton
p3461
aVWILLIAM
p3462
aVArchie Bunker
p3463
aVArchie Bunker
p3464
aVSTOKELY
p3465
aVMcCarthy
p3466
aVSigmund
p3467
aVSTEINEH
p3468
aVSTEINEM
p3469
aVSteinem
p3470
aVGLORIA
p3471
aVSTEINEM
p3472
aVGrahams
p3473
aVAmazon Princess
p3474
aVRockefeller
p3475
aVMcGovern
p3476
aVMcCarthy
p3477
aVBeauvoir
p3478
aVGloria Steinem
p3479
aVState Labor Commissioner Sam Caldwell
p3480
aVTruth About The British Suffragettes Foye
p3481
aVSherwell
p3482
aVPankhurst
p3483
aVCountess Markievicz
p3484
aVChristabel
p3485
aVLord Curzon
p3486
aVChristabel
p3487
aVChristabel
p3488
aVPankhurst
p3489
aVCountess Markievicz
p3490
aVClay
p3491
aVMyth Of Docility Foye Levine Without
p3492
aVAmatniek
p3493
aVMcPartIin
p3494
aVVirginia Woolf
p3495
aVMcVeigh
p3496
aVMorrioge Question Potricio Moinordi
p3497
aVMovement Pioneers Potricio Moinordi
p3498
aVDouble Standard Of Organization Elizabeth Mast
p3499
aVRockefellers
p3500
aVGeneral Ky
p3501
aVGeneral Peers
p3502
aVMitchell
p3503
aVBlack Woman
p3504
aVCarol
p3505
aVBESSIE
p3506
aVMidge Decters
p3507
aVAmerican Psychologist
p3508
aVBird
p3509
aVMeiji
p3510
aVMacLaine
p3511
aVBeverly
p3512
aVKate Millett
p3513
aVMALCOLM
p3514
aVDreifus
p3515
aVBeverly
p3516
aVCentury New England Poet Kothie
p3517
aVMitchell
p3518
aVRockefeller
p3519
aVSimone
p3520
aVSteinem
p3521
aVSteinem
p3522
aVKate Millett
p3523
aVFriedan
p3524
aVPedestat Aileen Kraditor
p3525
aVRockefellers
p3526
aVComrade Wang
p3527
aVSenator
p3528
aVTom
p3529
aVTom
p3530
aVorgasmAnne Koedt
p3531
aVGloria
p3532
aVGloria Steinem
p3533
aVGloria Steinem
p3534
aVGLORIA
p3535
aVMcCarthy
p3536
aVAbrams
p3537
aVSuper Spy
p3538
aVFlorynce Kennedy
p3539
aVGloria Steinem
p3540
aVMcCarthys
p3541
aVSteinem
p3542
aVSteinem
p3543
aVSteinem
p3544
aVSteinem
p3545
aVSteinem
p3546
aVSteinem
p3547
aVCarmichael
p3548
aa.