(lp1
(lp2
VLiberation School
p3
aVKarate
p4
aVDepartment
p5
aVAction Committee
p6
aVACDC
p7
aVACDC
p8
aVFamily Services
p9
aVDepartment of Human Resources
p10
aVACDC
p11
aVACDC
p12
aVAction Committee
p13
aVChicago Connections
p14
aVCook County Jail
p15
aVChicago Connections
p16
aVCCJ
p17
aVEurophie Blimpworks
p18
aVHigh
p19
aVWOMEN
p20
aVWORK
p21
aVGM
p22
aVIBm
p23
aVMotors
p24
aVEngineering News
p25
aVVolkswagon
p26
aVU.S. Department
p27
aVWOMANKIND
p28
aVWarrington
p29
aVMenominee Indian
p30
aVArmy Radar Site
p31
aVDuPage County
p32
aVArgonne National Laboratory
p33
aVDuPage County
p34
aVBelmont Harbor
p35
aVBelmont Harbor
p36
aVPark District
p37
aVADC
p38
aVBelmont Harbor
p39
aVSun Times
p40
aVMenominee
p41
aVCatholic Schools
p42
aVAmerican Indian Center
p43
aVBoard
p44
aVBoard
p45
aVBoard
p46
aVNike
p47
aVWarrington
p48
aVGE
p49
aVRCA
p50
aVUS Steel
p51
aVBethlehem Steel
p52
aVDowJones
p53
aVHOW
p54
aVUnitarian
p55
aVLiberation School
p56
aVCWLU
p57
aVLutheran
p58
aVWOMANKIND Liberation School
p59
aVChicago Women
p60
aVLiberation Union
p61
aVChicago Women
p62
aVLiberation Union
p63
aVCCJ
p64
aVSenn
p65
aVChicago Women
p66
aVChicago Womens Liberation
p67
aVCWLU
p68
aVCWLU
p69
aVWWhy
p70
aVWomankIND
p71
aVWOMANKIND
p72
aVWOMANKIND
p73
aVChicago Womens Liberation Union
p74
aVChicago Women
p75
aVLiberation Union
p76
aVLUTHERAN
p77
aVAND
p78
aVTHE
p79
aVLIBERATION
p80
aVINTRODUCTORY
p81
aVSTUDY
p82
aVLIBERATION FOR
p83
aVCWLU
p84
aVSisters
p85
aVChicago Women
p86
aVLiberationh Union
p87
aVPaulinaBarry
p88
aVSOME
p89
aVProctor
p90
aVGamble
p91
aVMetamorphosis
p92
aVAll American
p93
aVCook County Law Library
p94
aVWOMANKIND
p95
aVCWLU Libertion School
p96
aVChicago Public Schools
p97
aVWOMEN
p98
aVHandbook
p99
aVIllinois Board
p100
aVNew University Conference
p101
aVChicago City Colleges
p102
aVconsisLts
p103
aVChicago City College
p104
aVChicago City College
p105
aVCCC
p106
aVLabor Dept
p107
aVPublic Aid Dept
p108
aVJustice Department
p109
aVSupreme Court
p110
aVDaily News
p111
aVLiberation Movement
p112
aVCivil Rights Act
p113
aVRepresentatives
p114
aVCivic Center
p115
aVLiberation School
p116
aVLiberation School
p117
aVCLAP
p118
aVRAP Notes
p119
aVWW
p120
aVUS Board
p121
aVFritzi Englestein Free People
p122
aVPar
p123
aVBoard
p124
aVWOMANKIND
p125
aVAction Committee
p126
aVACDC
p127
aVVarnas Montessori Center
p128
aVVarna Center
p129
aVHuman Resources
p130
aVACDC
p131
aVACDC
p132
aVVarnas Montessore
p133
aVChicago Women
p134
aVLaMaze
p135
aVChicago Maternithy
p136
aVCMC
p137
aVMaxwell
p138
aVMedical School
p139
aVCMC
p140
aVCommunity
p141
aVAbortion Rap
p142
aVBlake
p143
aVRecommendation Dept
p144
aVCity Council
p145
aVPublic Works
p146
aVAFLCIO
p147
aVAfLCIO Women
p148
aVBureau
p149
aVU.S. Department
p150
aVAILFCIO
p151
aVDepartment
p152
aVState
p153
aVLegis1ative Committee
p154
aVWitch
p155
aVIWW
p156
aVCWLU
p157
aVChicago Women
p158
aVLiberation Rock Band
p159
aVABC
p160
aVLiberation School
p161
aVLiberation School
p162
aVChicago Women
p163
aVLiberatio Union
p164
aVQuess
p165
aVAnerican Medical Association
p166
aVAmerican Pow
p167
aVEllsberg
p168
aVUS
p169
aVPentagon
p170
aVRIGHTS
p171
aVCredit Department
p172
aVState
p173
aVChicago Womens Liberation Union
p174
aVLiberation School
p175
aVaCTION Committee
p176
aVSisters Center
p177
aVAbortion Coalition
p178
aVRadical Lesbians
p179
aVChicago Welfare Rlghts Organization
p180
aVArmy
p181
aVPentagon
p182
aVNational League
p183
aVAmerican Prisoners
p184
aVPOW
p185
aVPOW
p186
aVPOWs
p187
aVPOW
p188
aVUS
p189
aVWOMANKIND
p190
aVLiberation Movement
p191
aVPOW
p192
aVAND
p193
aVLiberation Movement
p194
aVSWITCHES Make
p195
aVFigure Dl
p196
aVChicago Women
p197
aVLiberation Union
p198
aVChicago Women
p199
aVLiberation Union The
p200
aVCWLU
p201
aVCWLU
p202
aVWOMANKIND
p203
aVHARK
p204
aVTHE
p205
aVADS
p206
aVHARK
p207
aVTHE
p208
aVHERALD
p209
aVTHE
p210
aVADS
p211
aVAND
p212
aVHARK
p213
aVHAS
p214
aVPAYS
p215
aVHER
p216
aVHEALTH
p217
aVAND
p218
aVHOWEVER
p219
aVWE
p220
aVCOULD
p221
aVWELFARE
p222
aVPEOPLE
p223
aVAGGRESS
p224
aVTHE
p225
aVLAKEVIEW
p226
aVTHE
p227
aVCompetitive Spirit
p228
aVDepartment
p229
aVMORE
p230
aVRISING
p231
aVPA
p232
aVTHE
p233
aVBENEFIT
p234
aVLIBERATION
p235
aVParenthood
p236
aVParenthood
p237
aVsixteenWomankind
p238
aVTWO
p239
aVSorbonne
p240
aVMove
p241
aVBirmingham
p242
aVBrandeis
p243
aVUCLA
p244
aVCommunist Party
p245
aVUCLA
p246
aVUCLA Board
p247
aVFBI
p248
aVNew Haven Black Panther Party
p249
aVBlack Panther
p250
aVBlack Panther
p251
aVWOMANKIND
p252
aVHOOD
p253
aVTHE
p254
aVwhiCh
p255
aVVW
p256
aVCar
p257
aVHEALTH
p258
aVAssociation House
p259
aVFREE
p260
aVTB
p261
aVSelfHelp
p262
aVLiberation School
p263
aVChicago Women
p264
aVLiberation Union
p265
aVONLY
p266
aVTHE
p267
aVARE
p268
aVIMPRESS
p269
aVBuT
p270
aVTO
p271
aVOUR
p272
aVLETs
p273
aVMEET
p274
aVTALK
p275
aVRIGHTS
p276
aVCALL
p277
aVLIBERATION
p278
aVAction Com
p279
aVCom
p280
aVACDC
p281
aVACDC
p282
aVCongress
p283
aVACDC
p284
aVACDC
p285
aVACDC
p286
aVLegal Coinic
p287
aVLiberation Union
p288
aVLIBERATION
p289
aVLiberation School
p290
aVLiberation School
p291
aVLiberation Union
p292
aVTHE
p293
aVNEW
p294
aVNew Woman
p295
aVWAY
p296
aVNEW
p297
aVCIA
p298
aVPlayboy
p299
aVNEW
p300
aVTHE
p301
aVMEDITATION
p302
aVYOU
p303
aVCOMPLETE
p304
aVTO
p305
aVDolton Sambo
p306
aVSambo
p307
aVWE
p308
aVTHE
p309
aVWE
p310
aVCOME
p311
aVAND
p312
aVDIRTY
p313
aVTO
p314
aVBONES
p315
aVFEEL
p316
aVCAN
p317
aVKNOW
p318
aVSTILL
p319
aVWE
p320
aVTURN
p321
aVADMIT
p322
aVHATE
p323
aVTURN
p324
aVMOSTLY
p325
aVWITH
p326
aVHELP
p327
aVWE
p328
aVTHE
p329
aVADVYCE
p330
aVBUY
p331
aVNEW
p332
aVDRESS
p333
aVWE
p334
aVHATE
p335
aVHAVE
p336
aVTHE
p337
aVTIME
p338
aVCOME
p339
aVFEEL
p340
aVTO
p341
aVCENTERS
p342
aVBE
p343
aVChicago Women
p344
aVLiberation Union
p345
aVUNIQUE
p346
aVOBJECTIVE
p347
aVVERY
p348
aVAND
p349
aVWE
p350
aVFIRST
p351
aVHammer Against
p352
aVPope
p353
aVPope
p354
aVBlack Mass
p355
aVMother Church
p356
aVProtestant
p357
aVMallus Malefriacum
p358
aVHIGH
p359
aVGAY
p360
aVCivic Center
p361
aVCar
p362
aVJUMPINT
p363
aVCAR
p364
aVGay Liberation
p365
aVGay Women
p366
aVCaucus
p367
aVLiberation School
p368
aVWOMANKIND
p369
aVGay Liberation
p370
aVChicago Women
p371
aVLiberation Union
p372
aVChicago Women
p373
aVLiberation Union
p374
aVCNLU
p375
aVCWLU
p376
aVBell System
p377
aVINSECURE
p378
aVTHE
p379
aVINSECURE
p380
aVTIMD
p381
aVTIMD
p382
aVTIMD
p383
aVYOU
p384
aVPlaythings
p385
aVFamily Assistance Plan
p386
aVFAP
p387
aVCongress
p388
aVCongress
p389
aVCongress
p390
aVIndustrial Revolution
p391
aVOB
p392
aVFirst Obstetrical Clinic
p393
aVCMC
p394
aVCMC
p395
aVFirst Crisis
p396
aVMaternity Center
p397
aVMaternity Center
p398
aVMaternity Center
p399
aVMaternity Center
p400
aVMaternity Center
p401
aVMaternity Center
p402
aVAmerican Medical Association
p403
aVMaternity Center
p404
aVCMC
p405
aVCook County Hospital
p406
aVNO
p407
aVTHE
p408
aVHEALTH
p409
aVPER
p410
aVTHE
p411
aVFIRST
p412
aVOUT
p413
aVAUEROSPACE
p414
aVTELL
p415
aVTHE
p416
aVdignitySex
p417
aVLiberation Movement
p418
aVMasters
p419
aVEqual Employment
p420
aVAmerican Telephone
p421
aVTelegraph Company
p422
aVBell Telephone System
p423
aVBell System
p424
aVLNS
p425
aVApollo
p426
aVAmerican Telephone
p427
aVTelegraph Company
p428
aVBell System
p429
aVDepartment
p430
aVAT
p431
aVAT
p432
aVAT
p433
aVDepartment
p434
aVAI
p435
aVDepartment
p436
aVAT
p437
aVAT
p438
aVDepartment
p439
aVInternational Women
p440
aVSTREETS Bernadette Devlin
p441
aVParliament
p442
aVParliament
p443
aVDevlin
p444
aVProtestant
p445
aVIRA
p446
aVIRA
p447
aVIrish Republican Army
p448
aVProtestant
p449
aVIRA
p450
aVRepublican News
p451
aVIRA
p452
aVIRA
p453
aVIRA
p454
aVIRA
p455
aVIRA
p456
aVIRA
p457
aVProtestant
p458
aVInternment
p459
aVIRA
p460
aVIRA
p461
aVShankill Protestant
p462
aVSash
p463
aVLS0
p464
aVInternational Women
p465
aVInternational Women
p466
aVInternational Women
p467
aVSecond International
p468
aVInternational Women
p469
aVKaiser
p470
aVROSES
p471
aVLowell Female Labor Reform Association
p472
aVInternational Ladies Garment Workers Union
p473
aVNational Women
p474
aVAmerica
p475
aVWAGE
p476
aVPay Board
p477
aVCWLU
p478
aVLiberation School
p479
aVJohnsonGoldwater
p480
aVPentagon
p481
aVExecutive Branch
p482
aVCIA
p483
aVExecutive Branch
p484
aVHarvard
p485
aVMcGeorge
p486
aVHarvard
p487
aVFord
p488
aVPentagon
p489
aVCongress
p490
aVCongress
p491
aVDemocratic Party
p492
aVCongress
p493
aVCongress
p494
aVCTA
p495
aVAction Committee
p496
aVDecent Child
p497
aVChildcare Services
p498
aVACDC
p499
aVSpeigels
p500
aVSpeigels
p501
aVVincents
p502
aVSt. Vincents
p503
aVONLY
p504
aVPLAY
p505
aVIllinois Department
p506
aVFear
p507
aVWOMANKIND
p508
aVSCHOOL Margie Wells
p509
aVCanning Workers
p510
aVTextile Workers
p511
aVGarment Workers
p512
aVAfrican National
p513
aVCongress
p514
aVAfrican National Congress
p515
aVNatal Indian Congress
p516
aVNewcastle
p517
aVAfrican National
p518
aVCongress
p519
aVAfrican National Congress
p520
aVGarment Workers
p521
aVChinese Communist
p522
aVMainstream Publishers Labor
p523
aVUnited Electrical
p524
aVChicago Women
p525
aVCWLU
p526
aVCWLU
p527
aVWomankIND
p528
aVWOMANKIND
p529
aVInternational Union
p530
aVElectrical Workers
p531
aVGeneral Electric Company
p532
aVChicago Board
p533
aVBoard
p534
aVIBM
p535
aVNew University Conference
p536
aVBanneker
p537
aVWELFARE
p538
aVRIGHTS
p539
aVWRO
p540
aVWelfare Fighter
p541
aVSupreme Court
p542
aVSupreme Court
p543
aVRelations Court Some
p544
aVDomestic Relations Court
p545
aVDomestic Relations Court
p546
aVDomestic Court
p547
aVLiberation Union Legal
p548
aVCWLU Legal Clinic
p549
aVLegal Clinic
p550
aVLegal Clinic
p551
aVCom
p552
aVLegal Clinic
p553
aVCWLU
p554
aVChicago Women Liberation
p555
aVFour Oceans
p556
aVGOLD
p557
aVChicago Women
p558
aVLiberation Union
p559
aVLiberation Union
p560
aVHandbook
p561
aVChicago Women
p562
aVLiberation Union
p563
aVCWLU
p564
aVChicago Women
p565
aVLiberation Union
p566
aVChicago Women
p567
aVCWLU
p568
aVChicago Women
p569
aVLiberation Union
p570
aVWOMANKIND
p571
aVCIA
p572
aVDefense Department
p573
aVWOMANKIND
p574
aVJACKS
p575
aVNEW Women
p576
aVCenter Opens
p577
aVChicago Women
p578
aVLiberation Union
p579
aVWheaton United
p580
aVMethodist Church
p581
aVLiberation School
p582
aVCWLU
p583
aVWOMANKIND
p584
aVLIBERATION
p585
aVLiberation School
p586
aVWright Junior College
p587
aVChicago Women
p588
aVWOMEN
p589
aVMidwest Women
p590
aVWOMEN
p591
aVPiechota
p592
aVConque
p593
aVCongress
p594
aVEqual Education
p595
aVFarm Workers
p596
aVUnited Farm Workers
p597
aVRepublican Party
p598
aVNational Labor Relations Board
p599
aVNLRB
p600
aVBoard
p601
aVUFW
p602
aVNLRB
p603
aVCongress
p604
aVChicago Women
p605
aVLiberation Union
p606
aVNews Vietnamese
p607
aVSIU
p608
aVSIU
p609
aVSIU
p610
aVSIU Center
p611
aVITT
p612
aVITT
p613
aVRepublican Party
p614
aVITT
p615
aVITT
p616
aVGI
p617
aVLooP
p618
aVLooP
p619
aVBoard
p620
aVBoard
p621
aVFirst Federal Savings
p622
aVBoard
p623
aVREAL
p624
aVPAGE
p625
aVLIBERATION
p626
aVLiberation School
p627
aVChicago Women
p628
aVLiberation Union
p629
aVSister Center
p630
aVLiberation School
p631
aVChicago Women
p632
aVLiberation Union
p633
aVChicago Women
p634
aVLiberation Union
p635
aVChicago Wmen
p636
aVLiberation Union
p637
aVEvanston Women
p638
aVLiberation Center
p639
aVMethodist Church
p640
aVChannel
p641
aVChicago Women
p642
aVLiberation Union
p643
aVLegal Clinic
p644
aVLegal Clinic
p645
aVChicago Women
p646
aVLiberation Union
p647
aVSISTER
p648
aVSister Center
p649
aVUnited Church
p650
aVLiberation School
p651
aVEdgewater Tot Lot
p652
aVWOMANKIND
p653
aVEdgewaer Women
p654
aVTot Lot
p655
aVLiberation Union
p656
aVNational Liberation Front
p657
aVNational Liberation Front
p658
aVNational Liber
p659
aVOrders
p660
aVChicago Daily
p661
aVLiberation Front
p662
aVMagic Dragon
p663
aVMongolian Kubla Kahn
p664
aVVersailles Peace Conference
p665
aVVersailles
p666
aVLeague
p667
aVDispatch News Service
p668
aVLiberation News Service
p669
aVViet Minh
p670
aVU.N.
p671
aVKuomintang
p672
aVWOMANKIND
p673
aVACTION Brunswick
p674
aVSPILL
p675
aVINK
p676
aVMAGNETS
p677
aVFORUM
p678
aVLiberation School
p679
aVChicago Women
p680
aVLiberation Union
p681
aVUNITED
p682
aVUnited Front
p683
aVArmed Forces
p684
aVGreat Lakes Naval
p685
aVPOINT
p686
aVThreePoint
p687
aVPEOPLE
p688
aVArmed Forces
p689
aVGreat Lakes Naval
p690
aVGI
p691
aVGI
p692
aVGreat Lakes Naval Base
p693
aVARVN
p694
aVUS
p695
aVCommunist Party
p696
aVCommunist Party
p697
aVFDS
p698
aVFDS
p699
aVFDS
p700
aVLIP
p701
aVARVN
p702
aVARVN
p703
aVNLF
p704
aVVietnam Vets
p705
aVGI
p706
aVCommunist Party
p707
aVLiberated Zone
p708
aVVietnam Workers Party
p709
aVNational Liberation Front
p710
aVWAR
p711
aVViet Minh
p712
aVDien Bien Phn
p713
aVGeneva Conference
p714
aVUnited Nations
p715
aVDemocratic Republic
p716
aVState Bao Dai
p717
aVNational Liberation Front
p718
aVNLF
p719
aVNLP
p720
aVNLF
p721
aVSaigon Army
p722
aVARVN
p723
aVNLF
p724
aVGI
p725
aVProvisional
p726
aVNLF
p727
aVNLF
p728
aVNLF
p729
aVPRG
p730
aVArmy
p731
aVPentagon
p732
aVPentagon
p733
aVTHE
p734
aVNative Amer
p735
aVWAITRESSES Form Union
p736
aVHarvard Square
p737
aVHarvard Square Organizing Committee
p738
aVHarvard Square Waitresses Organizing Committee
p739
aVCronin
p740
aVHarvard Square Waitress Organizing Committee
p741
aVLiberation News Service
p742
aVChicago Womens Liberation
p743
aVAmerican College
p744
aVLIBERATION
p745
aVChicago Women
p746
aVLiberation Union Liberation School
p747
aVWOMANKIND
p748
aVSister Center
p749
aVTHE
p750
aVEvanston Women
p751
aVUniversity Medical School
p752
aVUniversity Medical School
p753
aVAmerican Medical Association
p754
aVAmerican College
p755
aVMaternity Center
p756
aVMaternity Center
p757
aVMedical Center
p758
aVNorthwestern University
p759
aVMaternity Center
p760
aVChicago Women
p761
aVLiberation Union
p762
aVDEFENSE
p763
aVChicago Women
p764
aVLiberation Union
p765
aVNational Organization
p766
aVDefense Committee
p767
aVDefense Committee
p768
aVDefense Committee
p769
aVAbortion Seven
p770
aVCivic Center
p771
aVCivic Center
p772
aVChicago Women
p773
aVLiberation Union
p774
aVMedical Committee
p775
aVAbortion Coalition
p776
aVChicago Women
p777
aVLiberation Rock Band
p778
aVDefense Committee
p779
aVChicago Women
p780
aVLiberation Union
p781
aVTHE
p782
aVCity Hall City Hall
p783
aVChicago Women
p784
aVLiberation Union
p785
aVCWLU
p786
aVLiberation Union
p787
aVLiberation School
p788
aVNARMIC
p789
aVWOMEN
p790
aVCity Hall
p791
aVWOMEN
p792
aVFederal Women
p793
aVDepartment
p794
aVDepartment
p795
aVDepartment
p796
aVFWP
p797
aVFWP
p798
aVFWP
p799
aVFWP
p800
aVTHE
p801
aVNEWS House
p802
aVIllinois House
p803
aVU.S. Court
p804
aVCosmic Frog
p805
aVBoard
p806
aVBoard
p807
aVBoard
p808
aVBoard
p809
aVIllinois House
p810
aVChicago School Board
p811
aVAbortion Seven
p812
aVWOMANKIND
p813
aVAnnual Meeting
p814
aVAmerican College
p815
aVConrad Hilton Hotel
p816
aVBoston Women
p817
aVAmerican College
p818
aVAmerican College
p819
aVSupreme Court
p820
aVSupreme Court
p821
aVFLUIDS
p822
aVCatholic Church
p823
aVCatholic Church
p824
aVCommunist Eastern European
p825
aVCatholic Church
p826
aVUSSR
p827
aVTHE
p828
aVWAR
p829
aVNational Liberation Front
p830
aVGeneva Conven
p831
aVSaigon Army
p832
aVARVN
p833
aVTay Ninh
p834
aVSaigon Armcy
p835
aVNLF
p836
aVARVN
p837
aVARVN
p838
aVARVN
p839
aVNLF
p840
aVNLF
p841
aVNLF
p842
aVPRG
p843
aVPRG
p844
aVNational Liberation Front
p845
aVProvisional
p846
aVPOW
p847
aVTHE
p848
aVCAR
p849
aVWOMANKIND
p850
aVFWP
p851
aVFEW
p852
aVGeneral Services
p853
aVAdministration
p854
aVDepartment
p855
aVDepartment
p856
aVFederal Aviation Author
p857
aVDepartment
p858
aVRevenue Service
p859
aVDepartment
p860
aVCivil Service Commission
p861
aVFederal Women
p862
aVGSA
p863
aVFWP
p864
aVFEW
p865
aVGeneral Services Administration
p866
aVDepartment
p867
aVDepartment
p868
aVFederal Aviation Authority
p869
aVDepartment
p870
aVInternal Revenue Service
p871
aVDepartment
p872
aVCivil Service Commission
p873
aVFederal Women
p874
aVGSA
p875
aVGS
p876
aVGS
p877
aVGS
p878
aVFEW
p879
aVFWP
p880
aVHUD
p881
aVHUD
p882
aVHUD
p883
aVHUD
p884
aVFederal Women
p885
aVHUD
p886
aVEEO
p887
aVHUD
p888
aVFederal Women
p889
aVFederal Regional Council
p890
aVFederal Regional Council
p891
aVFWP
p892
aVFWP
p893
aVNational Labor Relations Board
p894
aVNational Council
p895
aVDistributive Workers
p896
aVMasters
p897
aVAbortion Seven
p898
aVWOMankind
p899
aVCWLU
p900
aVAbortion Seven
p901
aVCWLU
p902
aVCWLU
p903
aVFarces
p904
aVArmed Forces
p905
aVArmy
p906
aVGI
p907
aVArmed Farces
p908
aVGI
p909
aVGI
p910
aVGI
p911
aVChicago Womens Liberation Union
p912
aVARE
p913
aVChicago Women
p914
aVLiberation Union
p915
aVMaternity Center
p916
aVMaternity Center
p917
aVMaternity Center
p918
aVMaternity Center
p919
aVMaternity Center
p920
aVMaternity Center
p921
aVMaternity Center
p922
aVMaternity Center
p923
aVChicago Women
p924
aVLiberation Union
p925
aVChicago Women
p926
aVLiberation Union
p927
aVLiberation School
p928
aVChicago Women
p929
aVLiberation Union
p930
aVNEW
p931
aVEvanston Women
p932
aVLIBERATION
p933
aVAuto Mechanics
p934
aVCWLU
p935
aVLiberation School
p936
aVCWLU Liberation School
p937
aVLiberation School
p938
aVCWLU
p939
aVHealth Care Delivery System
p940
aVEdgewater Women
p941
aVTheir Bodies
p942
aVEvanston Women
p943
aVBoston Women
p944
aVCenter School
p945
aVChicago Liberation School
p946
aVCWLU
p947
aVCWLU
p948
aVAugustana Lutheran Church
p949
aVTOGETHER Women
p950
aVColumbia College
p951
aVChicago Women
p952
aVWOMANKIND
p953
aVWOMANKIND
p954
aVChicago Women
p955
aVLiberation Rock Band
p956
aVTHE
p957
aVAbortion Seven
p958
aVNational Lesbian Information
p959
aVMothers Union
p960
aVNational Organization
p961
aVNOW
p962
aVNOW
p963
aVEducation Fund
p964
aVSECURITY
p965
aVSenate Finance Committee
p966
aVRepresentatives
p967
aVSenate Finance Committee
p968
aVBlack Panther Party
p969
aVAttica
p970
aVTHE
p971
aVWCFL
p972
aVTHE
p973
aVAVC
p974
aVTHE
p975
aVHappy Family
p976
aVWOMANKIND Puritan
p977
aVFACES
p978
aVCongress
p979
aVDRV
p980
aVPRG
p981
aVPCPJ
p982
aVDRV
p983
aVPRG
p984
aVDemocratic Republic
p985
aVProvisional
p986
aVPRG
p987
aVAme
p988
aVARVN
p989
aVPRG
p990
aVARVN
p991
aVDRV
p992
aVFederal Bureau
p993
aVFBI
p994
aVNational Commission
p995
aVTaylor
p996
aVSan
p997
aVWOMANKIND
p998
aVDEFENSE Courses
p999
aVWOMANKIND
p1000
aVJustice Department
p1001
aVJustice Department
p1002
aVCongress
p1003
aVJustice Department
p1004
aVCongress
p1005
aVCongress
p1006
aVBEIMONT
p1007
aVFord City
p1008
aVPeace Council Steering Committee
p1009
aVChicago Peace Council
p1010
aVHoneywell Ant Corporation Campaign
p1011
aVNaitonal Abortion Action Conference Hunter College
p1012
aVIllinois Abortion Coalition
p1013
aVRAPE
p1014
aVSTOP
p1015
aVLon Nol
p1016
aVPRG
p1017
aVDRV
p1018
aVARVN
p1019
aVARVN
p1020
aVARVN
p1021
aVARVN
p1022
aVDRV
p1023
aVARVN
p1024
aVPRG
p1025
aVARVN
p1026
aVCatholic Youth Union
p1027
aVRVN
p1028
aVPRG
p1029
aVPRG
p1030
aVChicago Women
p1031
aVLiberation Union
p1032
aVEdgewater Women
p1033
aVChicago Women
p1034
aVLiberation Union
p1035
aVEdgewater Women
p1036
aVEvamton Women
p1037
aVLiberation Center
p1038
aVChicago Women
p1039
aVEvanston League
p1040
aVEvanston Women
p1041
aVLiberation Center
p1042
aVRights Committee
p1043
aVHyde
p1044
aVAugustana Lutheran Church
p1045
aVAugustana Lutheran Church
p1046
aVLIBERATION
p1047
aVLiberation School
p1048
aVChicago Women
p1049
aVLiberation Union
p1050
aVLiberation School
p1051
aVEdgewater Women
p1052
aVSister Center
p1053
aVLiberation School
p1054
aVChicago Women
p1055
aVLiberation Union
p1056
aVLiberation School
p1057
aVWOMANKIND
p1058
aVWOMEN
p1059
aVFILM
p1060
aVChicago Women
p1061
aVDeeDee Walsh
p1062
aVCircle Campus
p1063
aVChicago Women
p1064
aVLibertion Union
p1065
aVChicago Women
p1066
aVLiberation Union
p1067
aVChicago Women
p1068
aVLiberation Union
p1069
aVNational Organization
p1070
aVLeague
p1071
aVCivic Center
p1072
aVCOME
p1073
aVTHE
p1074
aVAbortion Seven
p1075
aVAbortion Seven
p1076
aVAbortion Seven
p1077
aVAbortion Seven
p1078
aVAbortion Seven
p1079
aVChicago Women
p1080
aVLiberation Union
p1081
aVChicago Women
p1082
aVLiberation Rock Band
p1083
aVLiberation Rock Band
p1084
aVChicago Women
p1085
aVLiberation Rock Band
p1086
aVRounder Records
p1087
aVChicago Women
p1088
aVLiberation Union
p1089
aVChicago Women
p1090
aVLiberation Union
p1091
aVSisters Center
p1092
aVRape Crisis Line
p1093
aVRape
p1094
aVUnited Church
p1095
aVChicago Daily News
p1096
aVFree Health Clinics
p1097
aVOF
p1098
aVGilbert Youth Research
p1099
aVANSWER
p1100
aVTHE
p1101
aVWELFARE
p1102
aVSun Times
p1103
aVCoran
p1104
aVCook County Department
p1105
aVPublic Aid Halsted
p1106
aVSun Times
p1107
aVADC
p1108
aVADC
p1109
aVADC
p1110
aVNational Center
p1111
aVDepartment
p1112
aVSupreme Court
p1113
aVSupreme Court
p1114
aVSupreme Court
p1115
aVSupreme Court
p1116
aVAgriculture Department
p1117
aVAmerican Peace Movement
p1118
aVProvisional
p1119
aVPRG
p1120
aVFarm Workers
p1121
aVNational Liberation Front
p1122
aVViet Cong
p1123
aVNLF
p1124
aVNgoc Dung
p1125
aVNLF
p1126
aVNational Council
p1127
aVDistributive Workers
p1128
aVSecurity Plan
p1129
aVPlan
p1130
aVDream
p1131
aVWOMANKIND
p1132
aVParents Magazine
p1133
aVTHE
p1134
aVKITE
p1135
aVBEAR FOR
p1136
aVHawthorn Books
p1137
aVChicago Board
p1138
aVChicago Board
p1139
aVRamparts
p1140
aVAND
p1141
aVDEAL
p1142
aVSunTimes
p1143
aVAFLCIO
p1144
aVAFLCIO
p1145
aVTeamsters
p1146
aVRepublican Party
p1147
aVTeam
p1148
aVTeamsters
p1149
aVLabor Department
p1150
aVSeafarers Union
p1151
aVSeafarers
p1152
aVWOMANKIND Women
p1153
aVMETAMORPHOSIS
p1154
aVChicago Women
p1155
aVLiberation Union
p1156
aVCWLU
p1157
aVCWLU
p1158
aVChicago Women
p1159
aVLiberation Union
p1160
aVChicago Women
p1161
aVLiberation Union
p1162
aVLiberation School
p1163
aVHealth Project
p1164
aVChicago Women
p1165
aVLiberation Union Literature List
p1166
aVGraphics Collective
p1167
aVChicago Women
p1168
aVLiberation Union
p1169
aVChicago Women
p1170
aVTHE
p1171
aVWellington St. Congregational Church
p1172
aVSeven Point Peace
p1173
aVIPC
p1174
aVIPC
p1175
aVMedical Aid
p1176
aVIPC
p1177
aVPeace Campaign Tour
p1178
aVPalacio Theatre
p1179
aVChicago Peace Council
p1180
aVSun Times
p1181
aVMidwest Population Center
p1182
aVMidwest Population Center
p1183
aVARE
p1184
aVCivic Center
p1185
aVNational Organi
p1186
aVCity Council
p1187
aVAmerican Federation
p1188
aVLiberation Union
p1189
aVChicago Women
p1190
aVLiberation Union
p1191
aVCity Hall
p1192
aVHealth Project
p1193
aVChicago Women
p1194
aVLiberation Union
p1195
aVAugustana Lutheran Church
p1196
aVChicago Women
p1197
aVLiberation Union
p1198
aVSister Center
p1199
aVRape Crisis Center
p1200
aVLiberation School
p1201
aVEvanston Center
p1202
aVChicago Wom
p1203
aVLiberation Union
p1204
aVWheedon Methodist Church
p1205
aVGRACE
p1206
aVBELDEN
p1207
aVINTRODUCTORY
p1208
aVLIBERATION
p1209
aVINTRODUCTORY
p1210
aVTHE
p1211
aVLIBERATION
p1212
aVSister Center
p1213
aVLiberation School
p1214
aVOCL
p1215
aVChicago Women
p1216
aVLiberation Union
p1217
aVSister Center
p1218
aVLiberation School
p1219
aVLiberation School
p1220
aVCongress
p1221
aVMcGovern Commission
p1222
aVDemocratic Party
p1223
aVSupreme Court
p1224
aVUnited Nations
p1225
aVCabinet
p1226
aVGI
p1227
aVCriminal Courts
p1228
aVState
p1229
aVIllinois Supreme Court
p1230
aVIllinois Abortion
p1231
aVSupreme Court
p1232
aVNarcotics Court
p1233
aVCivic Center
p1234
aVTHE
p1235
aVBIRTH
p1236
aVHOW
p1237
aVRELIABILITY Out
p1238
aVBoston University
p1239
aVBaptist
p1240
aVPeople Decide
p1241
aVDemocratic Convention
p1242
aVCWLU
p1243
aVTO
p1244
aVTHE
p1245
aVChicago Women
p1246
aVLiberation Union
p1247
aVUnited Nations Kurt Waldheim
p1248
aVWorld Council
p1249
aVChicago Women
p1250
aVLiberation Union
p1251
aVTHE
p1252
aVWAR
p1253
aVDIKES
p1254
aVTraly
p1255
aVRed River
p1256
aVRed River Delta
p1257
aVWOMANKIND
p1258
aVOMA
p1259
aVChicago Committee
p1260
aVLibera
p1261
aVOMA
p1262
aVMPLA
p1263
aVOMA
p1264
aVCWLU
p1265
aVMPLA
p1266
aVOMA
p1267
aVLIBERATION
p1268
aVMPLA
p1269
aVNATO
p1270
aVBerets
p1271
aVPAICC
p1272
aVAfrican Party
p1273
aVPAIGC
p1274
aVUnited Nations
p1275
aVMozambique Liberation
p1276
aVMPLA
p1277
aVCONCP
p1278
aVLIBERATION
p1279
aVMPLA
p1280
aVMPLA
p1281
aVMPLA
p1282
aVMPLA
p1283
aVMPLA
p1284
aVMPLA
p1285
aVMPLA
p1286
aVMPLA
p1287
aVMedical Assistance Service
p1288
aVSAM
p1289
aVMPLA
p1290
aVMPLA
p1291
aVOMA
p1292
aVOrganizacao
p1293
aVOMA
p1294
aVMPLA
p1295
aVMPLA
p1296
aVOMA
p1297
aVOMA
p1298
aVOMA
p1299
aVOMA
p1300
aVMPLA
p1301
aVOMA
p1302
aVMPLA
p1303
aVPolitico
p1304
aVOMA
p1305
aVVillage Action Committee
p1306
aVOMA
p1307
aVVillage Committee
p1308
aVOMA
p1309
aVOMA
p1310
aVChicago Committee
p1311
aVOMA
p1312
aVNeto
p1313
aVOMA
p1314
aVOMA
p1315
aVMPLA
p1316
aVChicago Committee
p1317
aVFILMS
p1318
aVKHAN
p1319
aVFRELIMO
p1320
aVFRELIMo
p1321
aVUnited Front Against Imeprialism
p1322
aVHOW
p1323
aVHOW
p1324
aVRELIABILITY Out
p1325
aVHOW
p1326
aVLAVENDER
p1327
aVColumbia College
p1328
aVBENEFIT
p1329
aVIllinois Circle Campus
p1330
aVChicago Women
p1331
aVLiberation Union
p1332
aVChicago Lesbian Liberation
p1333
aVChicago Women
p1334
aVFUND
p1335
aVRAISING
p1336
aVChicago Women
p1337
aVLiberation Union
p1338
aVAlive
p1339
aVCWLU
p1340
aVTHE
p1341
aVPEOPLE
p1342
aVMinneapolis Historical Society
p1343
aVChicago Women
p1344
aVLiberation Rock Band
p1345
aVIllinois University
p1346
aVNortheaste
p1347
aVGuerilla
p1348
aVChicago Women
p1349
aVLiberation Union
p1350
aVJU
p1351
aVIV Emerald
p1352
aVChicago Women
p1353
aVLiberation Union
p1354
aVChcago Women
p1355
aVLiberation Union
p1356
aVTHE
p1357
aVBlack Panther
p1358
aVDe Mau Mau
p1359
aVDe Mau Mau
p1360
aVTHE
p1361
aVDe Mau Mau
p1362
aVDe Mau Mau
p1363
aVDaley Democrats
p1364
aVConlisk
p1365
aVDe Mau Mau
p1366
aVArmy Command
p1367
aVDaily News
p1368
aVWELFARE
p1369
aVNew Haven Wo
p1370
aVMAIDS
p1371
aVNational Com
p1372
aVNCHE
p1373
aVNCHE
p1374
aVNCHE
p1375
aVDIETHYLSTILBESTROL
p1376
aVChicago Daily News
p1377
aVLIBERATION
p1378
aVLiberation School
p1379
aVWright Junior College
p1380
aVCWLU
p1381
aVCivic Center
p1382
aVCWLU
p1383
aVeVanston Women
p1384
aVDe Mau Mau
p1385
aVArmy Comma
p1386
aVDaily News
p1387
aVChicagoe Women
p1388
aVMidwest Film Conference
p1389
aVChicago Women
p1390
aVCWLU Graphics Collective
p1391
aVCWLU
p1392
aVdefenseREAL
p1393
aVCPS
p1394
aVCensus Bureau
p1395
aVElectrical Workers
p1396
aVLabor Statistics
p1397
aVCen
p1398
aVMozambique Liberation Front
p1399
aVFRELIMo
p1400
aVUnited Front
p1401
aVChicago Women
p1402
aVLiberation Union
p1403
aVChicago Women
p1404
aVLiberation Union
p1405
aVCWLU
p1406
aVLIBERATION
p1407
aVLiberation School
p1408
aVCWLU
p1409
aVLiberation School
p1410
aVCWLU
p1411
aVWOMANKIND
p1412
aVCWLU
p1413
aVLiberation School
p1414
aVWOMANKIND
p1415
aVCWL U
p1416
aVCWLU
p1417
aVCWLU
p1418
aVCWLU
p1419
aVCWLU
p1420
aVRape Project
p1421
aVSister Center
p1422
aVRape Project
p1423
aVWOMANKIND
p1424
aVLiberation School
p1425
aVSister Center
p1426
aVEvanston Women
p1427
aVLiberation Center
p1428
aVJOB
p1429
aVCWLU
p1430
aVAND
p1431
aVCWLU
p1432
aVJob Discrimination Group
p1433
aVCivic Center
p1434
aVART
p1435
aVChicago Women
p1436
aVLiberation Rock Band
p1437
aVTHE
p1438
aVWORD
p1439
aVCWLU
p1440
aVCWLU
p1441
aVCWLU
p1442
aVCWLU
p1443
aVCWLU
p1444
aVCWLU
p1445
aVChicago Womens Liberation Union
p1446
aVMADEMOISELLE
p1447
aVWELFARE
p1448
aVTHE
p1449
aVTHE
p1450
aVGLAMOUR
p1451
aVTV
p1452
aVMODERN
p1453
aVWOMEN
p1454
aVTHE
p1455
aVJOURNAL OF LIBERATION
p1456
aVOFF
p1457
aVWOMANKIND
p1458
aVSEVENTEEN
p1459
aVGLAMOUR
p1460
aVTRUe
p1461
aVBIKINI
p1462
aVMarlboro
p1463
aVCoppertone
p1464
aVCoppertone
p1465
aVAND
p1466
aVSong
p1467
aVMS
p1468
aVCrazy
p1469
aVAmazon
p1470
aVLIVELY
p1471
aVREADER
p1472
aVSuePeace
p1473
aVWOMANKIND
p1474
aVTHE
p1475
aVGUERRILLA
p1476
aVDemocratic Republic
p1477
aVDRV
p1478
aVNLF
p1479
aVNational Libera
p1480
aVViet Cong
p1481
aVNLF
p1482
aVNLF
p1483
aVDRV
p1484
aVNLF
p1485
aVPentagon
p1486
aVUnAmerican Activities Com
p1487
aVPentagon
p1488
aVGIs
p1489
aVArmy
p1490
aVTHE
p1491
aVCampaign Troupe
p1492
aVVietnam Veterans
p1493
aVRepublican Convention
p1494
aVMiami Beach
p1495
aVNational Liber
p1496
aVSmith
p1497
aVBerets
p1498
aVCorvette
p1499
aVTure
p1500
aVChicago Women
p1501
aVLiberation Union
p1502
aVTHE
p1503
aVTHE
p1504
aVChicago Women
p1505
aVLiberation Rock Band
p1506
aVCWLU
p1507
aVRock Band
p1508
aVNew Haven Women
p1509
aVLiberation Rock Band
p1510
aVVolkswagen
p1511
aVPolitical History
p1512
aVCWLU
p1513
aVSister Center
p1514
aVLiberation School Work Group
p1515
aVCWLU
p1516
aVCWLU
p1517
aVWOMANKIND
p1518
aVLegal Clinic
p1519
aVEvanston Women
p1520
aVChicago Women
p1521
aVLiberation Union Of
p1522
aVLegal Clinic
p1523
aVLegal Clinic
p1524
aVIllinois Law
p1525
aVChildren Act
p1526
aVState
p1527
aVLegal Clinic
p1528
aVRAPE
p1529
aVRape Crisis Line
p1530
aVRape Crisis Line
p1531
aVWOMANKIND
p1532
aVRape Crisis Line
p1533
aVUnited Church
p1534
aVARE
p1535
aVEvanston Women
p1536
aVLiberation Center
p1537
aVChicago Women
p1538
aVLiberation Union
p1539
aVCWLU
p1540
aVCWLU
p1541
aVTheir Bodies
p1542
aVIllinois House
p1543
aVTheir Bodies
p1544
aVLegal Clinic
p1545
aVEvanston Women
p1546
aVLiberation Center
p1547
aVWheadon United Mothodist Church
p1548
aVRegistered Nurses
p1549
aVPractical Nurses
p1550
aVCook County Hospital
p1551
aVCook County Hospital
p1552
aVRIGHTS
p1553
aVCTU
p1554
aVAFT
p1555
aVCTU
p1556
aVCTU
p1557
aVChicago Board
p1558
aVChicago Board
p1559
aVUS Labor Department
p1560
aVMONSTER
p1561
aVCWLU Women Struggle
p1562
aVLegal Group
p1563
aVDeKalb
p1564
aVMWLG
p1565
aVMWLG
p1566
aVMWLG
p1567
aVMWLG
p1568
aVLegal Group
p1569
aVMWLG
p1570
aVLegal Group
p1571
aVLiberation Unios
p1572
aVCWLU
p1573
aVWOMANKIND
p1574
aVAdvisory Council
p1575
aVWOMANKIND
p1576
aVCWLU
p1577
aVTHE
p1578
aVADS
p1579
aVHerald Angels
p1580
aVHALLS
p1581
aVCongress
p1582
aVCongress
p1583
aVSun Times
p1584
aVSun Times
p1585
aVWOMANKIND
p1586
aVVD Handbook
p1587
aVCWLU
p1588
aVCWLU
p1589
aVVD Handbook
p1590
aVWOMANKIND
p1591
aVAND
p1592
aVMarine Corps
p1593
aVBartholin
p1594
aVBartholin
p1595
aVPID
p1596
aVOF
p1597
aVVhO
p1598
aVVD Handbook
p1599
aVCWLU
p1600
aVTurtle One
p1601
aVTHE
p1602
aVYertle
p1603
aVTHE
p1604
aVLIBERATION Union
p1605
aVChicago Women
p1606
aVLiberation Union
p1607
aVCWLU
p1608
aVCWLU
p1609
aVWOMANKIND
p1610
aVCWLU
p1611
aVCWLU
p1612
aVCWLU
p1613
aVCWLU
p1614
aVCWLU
p1615
aVRAPE
p1616
aVRape Project
p1617
aVSister Center
p1618
aVJOB
p1619
aVAND
p1620
aVCWLU
p1621
aVAugustana Lutheran
p1622
aVART
p1623
aVChicago Women
p1624
aVCWLU
p1625
aVTHE
p1626
aVWORD
p1627
aVCWLU
p1628
aVCWLU
p1629
aVCWLU
p1630
aVChicago Women
p1631
aVLiberation Union
p1632
aVProvisional
p1633
aVDemocratic Republic
p1634
aVProvisional
p1635
aVDRVN
p1636
aVParis Conference
p1637
aVUS
p1638
aVUS
p1639
aVDRVN
p1640
aVPRG
p1641
aVUS
p1642
aVFDA
p1643
aVChicago City Council
p1644
aVFDA
p1645
aVDuPont
p1646
aVFDA
p1647
aVAgriculture Butz
p1648
aVDARE
p1649
aVChicago Women
p1650
aVLiberation Union
p1651
aVDARE
p1652
aVDepartment
p1653
aVPublic Works
p1654
aVDARE
p1655
aVSain
p1656
aVDARE
p1657
aVDepartment
p1658
aVPublic Works
p1659
aVDARE
p1660
aVDepartment
p1661
aVPublic Works
p1662
aVWOMANKIND
p1663
aVUnited Church
p1664
aVMedical Center
p1665
aVBoard
p1666
aVBoard
p1667
aVCOME
p1668
aVWOMANKIND
p1669
aVState
p1670
aVChicago Women
p1671
aVLiberation Union
p1672
aVCity Council
p1673
aVDAREs
p1674
aVEqual Pay Act
p1675
aVCivil Rights Act
p1676
aVIllinois Fair Employment
p1677
aVDARE
p1678
aVDaily News
p1679
aVDARE
p1680
aVTHE
p1681
aVCLEAN
p1682
aVCity Council
p1683
aVDARe
p1684
aVDARE
p1685
aVFIGHT
p1686
aVTO
p1687
aVCatholic Church
p1688
aVLifeers
p1689
aVIllinois Women
p1690
aVAbortion Coalition
p1691
aVSecond Unitarian Church
p1692
aVInternational Tribunal
p1693
aVWOMANKIND
p1694
aVCASE
p1695
aVAbortion Seven
p1696
aVCivic Center
p1697
aVState
p1698
aVAbortion Defense Fund
p1699
aVLIBERATION
p1700
aVLiberation School
p1701
aVChicago Women
p1702
aVLiberation Union
p1703
aVCWLU
p1704
aVLiberation School
p1705
aVCWLU
p1706
aVARE
p1707
aVVice-Squad
p1708
aVOfficers
p1709
aVChicago Women
p1710
aVLiberation Union Legal Clinic
p1711
aVLegal Clinic
p1712
aVWheadon United
p1713
aVMethodist Church
p1714
aVChicago Women
p1715
aVLiberation Rock Band
p1716
aVROCK
p1717
aVBAND
p1718
aVChicago Womens Liberation Rock Band
p1719
aVNew Haven Women
p1720
aVLiberation Rock Band
p1721
aVCWLU
p1722
aVBell Laboratories
p1723
aVCWLU
p1724
aVChicago Women
p1725
aVWOMANKIND
p1726
aVWomens Graphics Collective
p1727
aVCenter Evantson
p1728
aVChicago Women
p1729
aVEvanston Women
p1730
aVLOOKIG
p1731
aVTHE
p1732
aVCabinet
p1733
aVCongress
p1734
aVCabinet
p1735
aVState
p1736
aVRoy
p1737
aVCabinet
p1738
aVFeminist Airline Project
p1739
aVNational Organization
p1740
aVNOW
p1741
aVWOMANKIND
p1742
aVNational Airlines
p1743
aVFlY Me
p1744
aVBoard
p1745
aVMaternity Center
p1746
aVMedical School
p1747
aVBoard
p1748
aVMedical School
p1749
aVMaternity Center
p1750
aVMaternity Center Board
p1751
aVPLANS
p1752
aVBoard
p1753
aVBoard
p1754
aVMaternity Center
p1755
aVMedical Center
p1756
aVMaternity Center
p1757
aVMaternity Center
p1758
aVMaternity Center Board
p1759
aVBoard
p1760
aVMaternity Center
p1761
aVMaternity Center
p1762
aVMaternity Center
p1763
aVBoard
p1764
aVMaternity Center
p1765
aVMaternity Center
p1766
aVMaternity Center
p1767
aVMaternity Center
p1768
aVMaternity Center
p1769
aVNewberry Streets
p1770
aVCoral Norris
p1771
aVWave
p1772
aVHospital Corps Waves
p1773
aVMSTS
p1774
aVPULL
p1775
aVHCS
p1776
aVDemocratic Republic
p1777
aVDRV
p1778
aVDRV
p1779
aVDRV
p1780
aVDRV
p1781
aVDRV
p1782
aVProvisional
p1783
aVViet Cong
p1784
aVNational Liberation Front
p1785
aVDRV
p1786
aVVietnam News Agency
p1787
aVDRV
p1788
aVPOWS
p1789
aVCWLU
p1790
aVState
p1791
aVChicago Peace Council
p1792
aVPeace Council
p1793
aVIPC
p1794
aVIPC
p1795
aVIPC
p1796
aVIPC
p1797
aVMAI
p1798
aVBach Mai Hospital
p1799
aVMAI
p1800
aVMAI
p1801
aVCongress
p1802
aVCongress
p1803
aVCongress
p1804
aVCongress
p1805
aVCorporate Intelligence Alliance
p1806
aVCongress
p1807
aVWOMANKIND
p1808
aVVD Handbook
p1809
aVCWLU
p1810
aVCWLU
p1811
aVVD Handbook
p1812
aVWOMANKIND
p1813
aVEXAMINATION
p1814
aVAND
p1815
aVTHE
p1816
aVEXAMINATION
p1817
aVOF
p1818
aVSings
p1819
aVKlu Klux Klan
p1820
aVbluesNEWS
p1821
aVFeminist Women
p1822
aVNebraska Civil Liberties Union
p1823
aVLegal Aid
p1824
aVTHE
p1825
aVLIBERATION Union
p1826
aVChicago Women
p1827
aVLiberation Union
p1828
aVCWLU
p1829
aVCWLU
p1830
aVWOMANKIND
p1831
aVCWLU
p1832
aVCWLU
p1833
aVCWLU
p1834
aVCWLU
p1835
aVCWLU
p1836
aVRAPE
p1837
aVRape Project
p1838
aVSister Center
p1839
aVJOB
p1840
aVAND
p1841
aVCWLU
p1842
aVAugustana Lutheran
p1843
aVART
p1844
aVChicago Women
p1845
aVCWLU
p1846
aVTHE
p1847
aVWORD
p1848
aVCWLU
p1849
aVCWLU
p1850
aVCWLU
p1851
aVChicago Women
p1852
aVLiberation Union
p1853
aVWOMANKIND
p1854
aVLIBERATION
p1855
aVAmazons
p1856
aVLiberation School
p1857
aVMarxist Study Group
p1858
aVCWLU
p1859
aVLiberation School
p1860
aVLiberation School
p1861
aVCWLU
p1862
aVCWLU
p1863
aVSecond Unitarian Church
p1864
aVSecond Unitarian Church
p1865
aVLiberation School
p1866
aVLiberation School
p1867
aVCWLU
p1868
aVLiberation School
p1869
aVRIGHTS
p1870
aVYWCA
p1871
aVStatus
p1872
aVMinority Women
p1873
aVAction Projects
p1874
aVWOMEN
p1875
aVLIBERATION
p1876
aVChicago Women
p1877
aVLiberation Union
p1878
aVConnecting Link
p1879
aVCWLU
p1880
aVConnecting Link
p1881
aVCWLU
p1882
aVWOMANKIND
p1883
aVARE
p1884
aVLIBERATION
p1885
aVChicago Women
p1886
aVLiberation Rock Band
p1887
aVFarewell
p1888
aVChicago Women
p1889
aVLiberation Rock Band
p1890
aVChicago Women
p1891
aVLiberation Union
p1892
aVSupreme Court
p1893
aVSupreme Court
p1894
aVSupreme Court
p1895
aVChicago Women
p1896
aVLiberation Uniion
p1897
aVCWLU
p1898
aVCWLU
p1899
aVMaternity Center
p1900
aVUnited Church
p1901
aVMatertiny Center
p1902
aVMaternity Center Maxell Street Dispensary
p1903
aVBoard of Directors
p1904
aVMaternity Center Board
p1905
aVNew Women
p1906
aVMaternity Center
p1907
aVGold Coast
p1908
aVChicago Women
p1909
aVLiberation Union
p1910
aVSupreme Court
p1911
aVLiberation Union
p1912
aVTHE
p1913
aVSupreme Court
p1914
aVSupreme Court
p1915
aVSupreme Court
p1916
aVSupreme Court
p1917
aVSupreme Court
p1918
aVSupreme Court
p1919
aVSupreme Court
p1920
aVSupreme Court
p1921
aVAMA
p1922
aVSupreme Court
p1923
aVChicago Women
p1924
aVLiberation Union
p1925
aVSupreme Court
p1926
aVChicago Board
p1927
aVCWLU
p1928
aVSupreme Court
p1929
aVTO
p1930
aVSupreme Court
p1931
aVAbortion Project
p1932
aVCWLU
p1933
aVCWLU
p1934
aVWomen_s Group
p1935
aVCWLU
p1936
aVDARE
p1937
aVCWLU
p1938
aVLiberation School
p1939
aVCWLU
p1940
aVBuilding Services
p1941
aVCivil Service Commission
p1942
aVCWLU
p1943
aVNOW
p1944
aVYWCA
p1945
aVLeague
p1946
aVCWLU
p1947
aVLakefront Festival
p1948
aVDemocratic Convention
p1949
aVAFSCME
p1950
aVAmerican Federation
p1951
aVCWLU
p1952
aVBudget Dept
p1953
aVFinance Committee
p1954
aVCity Council
p1955
aVDaily News
p1956
aVDARE
p1957
aVDARE
p1958
aVLiberation School
p1959
aVDARE
p1960
aVAustin Continental Industries
p1961
aVLabor Department
p1962
aVLabor Department
p1963
aVEqual Employment Opportunities Commission
p1964
aVLaabor Department
p1965
aVWOMANKIND
p1966
aVChicago Women
p1967
aVLiberation Union
p1968
aVNational Organization
p1969
aVNOW
p1970
aVBureau
p1971
aVU.S. Department
p1972
aVChicago Women
p1973
aVLiberation Union
p1974
aVLiberation School
p1975
aVEQUAL
p1976
aVEqual Pay Act
p1977
aVEqual Pay Act
p1978
aVEqual Pay Act
p1979
aVWage
p1980
aVU.S. Department
p1981
aVWage
p1982
aVEqual Pay Act
p1983
aVWage
p1984
aVVII
p1985
aVTHE
p1986
aVNOW
p1987
aVIllinois Fair Employ
p1988
aVPractices Commission
p1989
aVFEPC
p1990
aVNOW
p1991
aVEEOC
p1992
aVTimekeepers Examination
p1993
aVCivil Service Commission
p1994
aVCivil Service Commis
p1995
aVWater Distribution Division
p1996
aVYard Clerk
p1997
aVCivil Service Department
p1998
aVBoard
p1999
aVCity Hall
p2000
aVCity Hall
p2001
aVUnion Hall
p2002
aVDepartment
p2003
aVArea Director
p2004
aVLabor Department
p2005
aVCivic Center
p2006
aVLabor Department
p2007
aVDARE
p2008
aVTimekeeper
p2009
aVWater Distribution Division
p2010
aVWater Dist
p2011
aVWater Distribution Division
p2012
aVAssistant Commissioner
p2013
aVAssistant Commissioner
p2014
aVYard Clerk
p2015
aVCivil Service Cimmission
p2016
aVNational Organization
p2017
aVNOW
p2018
aVNOW Organization
p2019
aVAdvocate Corps
p2020
aVNOW
p2021
aVFair Employment
p2022
aVAdvocate Corps
p2023
aVFEPC
p2024
aVFEPC
p2025
aVCity Corporation Counsel
p2026
aVFEPC
p2027
aVVII
p2028
aVEqual Employment
p2029
aVEEOC
p2030
aVEEOC
p2031
aVWage
p2032
aVEEOC
p2033
aVNational Labor Relations Board
p2034
aVEEOC
p2035
aVEEOC
p2036
aVEEOC
p2037
aVEEOC
p2038
aVEEOC
p2039
aVEEOC
p2040
aVEqual Pay Act
p2041
aVEEOC
p2042
aVAIDE
p2043
aVSUN
p2044
aVWORK
p2045
aVHenrotin Hospital
p2046
aVTHE
p2047
aVPOWs
p2048
aVPentagon
p2049
aVINTERNATIONAL
p2050
aVCWLU Free
p2051
aVUnion Women
p2052
aVUAW
p2053
aVHITS
p2054
aVUnited Auto Workers Union
p2055
aVGeneral Motors
p2056
aVFord
p2057
aVEEOC
p2058
aVMedical Aid
p2059
aVIPC
p2060
aVMAI
p2061
aVWIN
p2062
aVBoard
p2063
aVBoard
p2064
aVBoard
p2065
aVChicago Teachers Union
p2066
aVBoard
p2067
aVBoard
p2068
aVBoard
p2069
aVTHE
p2070
aVLIBERATION Union
p2071
aVChicago Women
p2072
aVLiberation Union
p2073
aVCWLU
p2074
aVCWLU
p2075
aVWOMANKIND
p2076
aVCWLU
p2077
aVCWLU
p2078
aVCWLU
p2079
aVCWLU
p2080
aVCWLU
p2081
aVRAPE
p2082
aVRape Project
p2083
aVSister Center
p2084
aVJOB
p2085
aVAND
p2086
aVCWLU
p2087
aVAugustana Lutheran
p2088
aVART
p2089
aVChicago Women
p2090
aVCWLU
p2091
aVTHE
p2092
aVWORD
p2093
aVCWLU
p2094
aVCWLU
p2095
aVCWLU
p2096
aVChicago Women
p2097
aVLiberation Union
p2098
aVWOMANKIND
p2099
aVCFT
p2100
aVCTF
p2101
aVChicago Teachers Federation
p2102
aVChicago Federation
p2103
aVCTF
p2104
aVBoard
p2105
aVChicago Federation
p2106
aVCFL
p2107
aVChicago Teachers Federation
p2108
aVBoard
p2109
aVDaily News
p2110
aVCTF
p2111
aVAmerican Federation
p2112
aVCTF
p2113
aVAFL
p2114
aVNational Education Asso
p2115
aVAmerican Federation
p2116
aVLeague
p2117
aVTeachers Associations
p2118
aVAmerican Federation
p2119
aVWOMANKIND
p2120
aVLIBERATION
p2121
aVMOVE Women
p2122
aVChicago Women
p2123
aVLiberation Union
p2124
aVChicago Women
p2125
aVLiberation Union
p2126
aVCWLU
p2127
aVCWLU
p2128
aVCWLU
p2129
aVWHY
p2130
aVLIBERATION
p2131
aVTHE
p2132
aVLIBERATION
p2133
aVChicago Women
p2134
aVLiberation Union
p2135
aVChicago Women
p2136
aVLiberation Union
p2137
aVLiberation Army
p2138
aVSecond Unitarian Church
p2139
aVChicago Women
p2140
aVLiberation Union
p2141
aVINTERNATIONAL
p2142
aVWOMEN
p2143
aVCWLU Free
p2144
aVChild Care Task Force
p2145
aVHyde Park
p2146
aVChild Care Task Force
p2147
aVChild Care Task Force
p2148
aVSupreme Court
p2149
aVCWLU Abortion Task Force
p2150
aVSupreme Court
p2151
aVAmerican Civil Liberties Union
p2152
aVSupreme Court
p2153
aVCWLU
p2154
aVARE
p2155
aVMOVIN
p2156
aVLiberation Rock Band
p2157
aVCWLU
p2158
aVSecond Unitarian
p2159
aVCWLU Abortion Task
p2160
aVChicago Women
p2161
aVLiberation Union
p2162
aVCWLU
p2163
aVCWLU
p2164
aVCWLU Legal Clinic Gay Women
p2165
aVSTUDY
p2166
aVCWLU Rape Project
p2167
aVExtensions
p2168
aVCWLu
p2169
aVROCK
p2170
aVBAND
p2171
aVChicago Women
p2172
aVLiberaon Rock Band
p2173
aVState University
p2174
aVBuffalo
p2175
aVBuffalo
p2176
aVBuffalo
p2177
aVChicago Women
p2178
aVLiberation Union
p2179
aVInternational Women
p2180
aVWOMAKIND
p2181
aVPOW
p2182
aVPentagon
p2183
aVPentagon
p2184
aVState Rogers
p2185
aVProvisional
p2186
aVNational Liberation Front
p2187
aVViet Cong
p2188
aVPRG
p2189
aVPRG
p2190
aVState
p2191
aVDemocratic Republic
p2192
aVVIETNAM
p2193
aVMedical Aid
p2194
aVIPC
p2195
aVMAI
p2196
aVColumbia University
p2197
aVChicago Women
p2198
aVLibeiation Union
p2199
aVChinese
p2200
aVCommunist Party
p2201
aVWOMANKIND
p2202
aVTIMES
p2203
aVInternational Women
p2204
aVSecond International
p2205
aVInternational Women
p2206
aVLowell Female Labor Reform Association
p2207
aVInternational Garment Workers Union
p2208
aVNational Women
p2209
aVTriangle Waist Company
p2210
aVGarment Workers
p2211
aVChinese
p2212
aVCommunist Party
p2213
aVLawrence Textile Mill
p2214
aVBREAD
p2215
aVRosess
p2216
aVBowen Center
p2217
aVCongress
p2218
aVABOUT
p2219
aVModel Cities
p2220
aVCongressional Black Caucus
p2221
aVDepartment
p2222
aVJob Corps
p2223
aVCongress
p2224
aVCongress
p2225
aVCongress
p2226
aVCongress
p2227
aVCongress
p2228
aVCongress
p2229
aVCongress
p2230
aVCongress
p2231
aVResidential Manpower
p2232
aVDepartment
p2233
aVCommunity
p2234
aVSun Times
p2235
aVWHAT
p2236
aVAP
p2237
aVFDA
p2238
aVFood Stamp Program
p2239
aVFood Stamp Program
p2240
aVChicago Women
p2241
aVLiberation Union
p2242
aVWOMANKIND
p2243
aVTHE
p2244
aVCTA
p2245
aVCTA
p2246
aVCTA
p2247
aVCTA
p2248
aVCTA
p2249
aVMcCormick Place
p2250
aVCTA
p2251
aVCTA
p2252
aVHEALTH
p2253
aVDEDUCTIONS Income
p2254
aVInternal Revenue Service
p2255
aVTHE
p2256
aVLIBERATION Union
p2257
aVChicago Women
p2258
aVLiberation Union
p2259
aVCWLU
p2260
aVCWLU
p2261
aVWOMANKIND
p2262
aVCWLU
p2263
aVCWLU
p2264
aVCWLU
p2265
aVCWLU
p2266
aVCWLU
p2267
aVRAPE
p2268
aVRape Project
p2269
aVSister Center
p2270
aVJOB
p2271
aVAND
p2272
aVCWLU
p2273
aVAugustana Lutheran
p2274
aVART
p2275
aVChicago Women
p2276
aVCWLU
p2277
aVTHE
p2278
aVWORD
p2279
aVCWLU
p2280
aVCWLU
p2281
aVCWLU
p2282
aVChicago Women
p2283
aVLiberation Union
p2284
aVGood Stamp
p2285
aVFederal Court
p2286
aVTime Magazine
p2287
aVU.S. Department
p2288
aVWOMANKINDO
p2289
aVTHE
p2290
aVpantsCHICAGO
p2291
aVFILM
p2292
aVChicago Women
p2293
aVNorris University Center
p2294
aVMcClure Memorial
p2295
aVROCK
p2296
aVBAND
p2297
aVChicago Women
p2298
aVLiberation Rock Band
p2299
aVPittsburgh Student Union
p2300
aVEucmenical Women
p2301
aVCWLU
p2302
aVSecond Unitarian Church
p2303
aVLIBERATION
p2304
aVLiberation School
p2305
aVLiberation School
p2306
aVWOMANKIND
p2307
aVLiberation School
p2308
aVLiberation School
p2309
aVLiberation Schools
p2310
aVNEW
p2311
aVAID
p2312
aVChicago Women
p2313
aVLiberation Union
p2314
aVYWCA
p2315
aVCWLU
p2316
aVCWLU
p2317
aVARE
p2318
aVMOVING
p2319
aVAbortion Task Force
p2320
aVAbortion Task Force
p2321
aVAbortion Coalition
p2322
aVIWAC
p2323
aVRepresentatives
p2324
aVSupreme Court
p2325
aVATF
p2326
aVAmerican College
p2327
aVChicago Reader
p2328
aVATF
p2329
aVATF
p2330
aVInternational Women
p2331
aVAbortion Task Force
p2332
aVCWLU
p2333
aVCWLU
p2334
aVTHE
p2335
aVSupreme Court
p2336
aVSupreme Court
p2337
aVWOMANKIND
p2338
aVREADER
p2339
aVANN
p2340
aVTHE
p2341
aVROM
p2342
aVMerv Griffin
p2343
aVMD
p2344
aVHAROLD
p2345
aVKNEE Three
p2346
aVFBI
p2347
aVFBI
p2348
aVRussell Means
p2349
aVAIM
p2350
aVOgala Sioux
p2351
aVOSCRO
p2352
aVInner District Council
p2353
aVBIA
p2354
aVIDC
p2355
aVOSCRO
p2356
aVBIA
p2357
aVCivil Rights Organi
p2358
aVAIM
p2359
aVFeds
p2360
aVPine Ridge
p2361
aVAIM
p2362
aVOgala Sioux
p2363
aVAIM
p2364
aVBIA
p2365
aVBIA
p2366
aVBlack Hills
p2367
aVWounded Knee
p2368
aVNew Oglala Soiux Nation
p2369
aVOglala Sioux
p2370
aVAIM
p2371
aVBIA
p2372
aVFBI
p2373
aVDepartment
p2374
aVInterior
p2375
aVWounded Knee
p2376
aVAIM
p2377
aVMcCormick Place
p2378
aVHER
p2379
aVNOW
p2380
aVHollywood
p2381
aVWounded Knee
p2382
aVAcademy
p2383
aVSHAFTS
p2384
aVTHE NIGHT
p2385
aVAcademy
p2386
aVAcademy
p2387
aVWOMANKIND
p2388
aVFarah
p2389
aVACWA
p2390
aVNational Labor Relations Board
p2391
aVNLRB
p2392
aVFarahThe
p2393
aVACWA
p2394
aVACWA
p2395
aVFarah
p2396
aVACWA
p2397
aVPenney
p2398
aVLoop Carson
p2399
aVSupport Committee
p2400
aVFarah Strikers
p2401
aVFarah
p2402
aVChicago Women
p2403
aVLiberation Union
p2404
aVCongress
p2405
aVCongress
p2406
aVGeneral Assembly
p2407
aVCongress
p2408
aVNOW
p2409
aVWOMEN
p2410
aVTHE
p2411
aVWOMEN
p2412
aVAmalgamated Meat Cutters
p2413
aVState House
p2414
aVBBB
p2415
aVEEOC
p2416
aVEEOC
p2417
aVConsumer Fraud Bureau
p2418
aVDARE
p2419
aVCONFERENCE Direct Action For Rights
p2420
aVDARE
p2421
aVDARE
p2422
aVState Federation
p2423
aVSEIU
p2424
aVWOMANKIND
p2425
aVCWLU
p2426
aVCWLU
p2427
aVWOMANKIND
p2428
aVCWLU
p2429
aVOF
p2430
aVVD Handbook
p2431
aVOF
p2432
aVPAM
p2433
aVPAM
p2434
aVDepartment
p2435
aVOF
p2436
aVWOMANKIND
p2437
aVSIDE
p2438
aVFOLLOW
p2439
aVOF
p2440
aVTHE
p2441
aVLIBERATION Union
p2442
aVChicago Women
p2443
aVLiberation Union
p2444
aVCWLU
p2445
aVCWLU
p2446
aVWOMANKIND
p2447
aVCWLU
p2448
aVCWLU
p2449
aVCWLU
p2450
aVSupreme Court
p2451
aVCWLU
p2452
aVCWLU
p2453
aVCWLU
p2454
aVRAPE
p2455
aVRape Project
p2456
aVSister Center
p2457
aVJOB
p2458
aVAND
p2459
aVCWLU
p2460
aVART
p2461
aVAND
p2462
aVChicago Women
p2463
aVCWLU
p2464
aVTHE
p2465
aVWORD
p2466
aVCWLU
p2467
aVCWLU
p2468
aVCWLU
p2469
aVCWLU
p2470
aVCWLU
p2471
aVChicago Women
p2472
aVLiberation Union
p2473
aVCatholic Church
p2474
aVWOMANKIN D
p2475
aVLIBERATION
p2476
aVWOMANKIND
p2477
aVAT
p2478
aVStewart-Warner
p2479
aVStewart-Warner
p2480
aVHealth Service
p2481
aVChicago Women
p2482
aVLiberation Union
p2483
aVHALL
p2484
aVFair Employment
p2485
aVRAPE
p2486
aVARE
p2487
aVVillage
p2488
aVGay Pride Week
p2489
aVGay Pride Parade
p2490
aVTHE
p2491
aVVillage Voice
p2492
aVChicago Women
p2493
aVLiberatio
p2494
aVCWLU
p2495
aVCWLU
p2496
aVLAVENDAR
p2497
aVWOMANKIND
p2498
aVCWLU
p2499
aVWOMANKIND
p2500
aVINFORMATION Abortion Task Force
p2501
aVCWLU
p2502
aVPopulation Center
p2503
aVREBEL Emma
p2504
aVGoldman
p2505
aVGoldman
p2506
aVAbortion Task Force
p2507
aVAbortion Task Force
p2508
aVAbortion Task Force
p2509
aVChicago Women
p2510
aVLiberation Union
p2511
aVMORAL
p2512
aVSupreme Court
p2513
aVTO
p2514
aVCWLU
p2515
aVCongress
p2516
aVSentate
p2517
aVATF
p2518
aVFIGHTS
p2519
aVBOARD OF
p2520
aVChicago Board
p2521
aVChicago Tribune
p2522
aVATF
p2523
aVBoard
p2524
aVBoard
p2525
aVBoard
p2526
aVBoard
p2527
aVATF
p2528
aVATF
p2529
aVBoard
p2530
aVBoard
p2531
aVBoard
p2532
aVACS
p2533
aVBoard
p2534
aVBoard
p2535
aVBoard
p2536
aVBoard
p2537
aVFD
p2538
aVBoard
p2539
aVBoard
p2540
aVYWCA
p2541
aVYMCA
p2542
aVYW
p2543
aVYW
p2544
aVYW
p2545
aVSCWU
p2546
aVSCWU
p2547
aVSCWU
p2548
aVInternational Women
p2549
aVChicago Women
p2550
aVLibera
p2551
aVChicago Women
p2552
aVLiberation Union
p2553
aVSCWU
p2554
aVChicago Women
p2555
aVLiberation Union
p2556
aVLACKS
p2557
aVDaycare Crisis Council
p2558
aVFUTURE
p2559
aVDAYCARE
p2560
aVDAYCARE
p2561
aVDepartment
p2562
aVCOOPERATIVE
p2563
aVOR
p2564
aVDepartment
p2565
aVDAYCARE
p2566
aVChicago Area Daycare Crisis Council
p2567
aVSMELL
p2568
aVGALL
p2569
aVGALL
p2570
aVBoston University Hospital
p2571
aVGigliola
p2572
aVPope
p2573
aVCatholic Church
p2574
aVFederal Drug Administration
p2575
aVFDA
p2576
aVFDA
p2577
aVUnited Farm Workers
p2578
aVUnited Farm Workers
p2579
aVUFW
p2580
aVUFW
p2581
aVTHE
p2582
aVArmy Brass
p2583
aVGreen Berets
p2584
aVAirborne Division
p2585
aVDominican Republic
p2586
aVFort Dix
p2587
aVGI
p2588
aVWounded Knee
p2589
aVWatergate
p2590
aVDefense Melvin Laird
p2591
aVPentagon
p2592
aVWatergate
p2593
aVNEV
p2594
aVDepartment
p2595
aVPublic Works
p2596
aVCivic Center
p2597
aVChicago Local No
p2598
aVCommunication Workers
p2599
aVCWA
p2600
aVTHE
p2601
aVMercy
p2602
aVAT
p2603
aVCWA
p2604
aVCWA International
p2605
aVCWA International
p2606
aVCWA
p2607
aVCWA
p2608
aVAlternatives Drug Program
p2609
aVFLOORS
p2610
aVFACING
p2611
aVTO
p2612
aVLEARN
p2613
aVParis Agreement
p2614
aVPhu Tai
p2615
aVLiberation Army
p2616
aVQuy Nhon
p2617
aVLIBERATION Union The Chicago Women
p2618
aVLiberation Union
p2619
aVCWLU
p2620
aVCWLU
p2621
aVWOMANKIND
p2622
aVCWLU
p2623
aVCWLU
p2624
aVCWLU
p2625
aVSupreme Court
p2626
aVCWLU
p2627
aVCWLU
p2628
aVCWLU
p2629
aVRAPE
p2630
aVRape Project
p2631
aVSister Center
p2632
aVJOB
p2633
aVAND
p2634
aVCWLU
p2635
aVART
p2636
aVAND
p2637
aVChicago Women
p2638
aVCWLU
p2639
aVTHE
p2640
aVWORD
p2641
aVCWLU
p2642
aVCWLU
p2643
aVCWLU
p2644
aVCWLU
p2645
aVCWLU
p2646
aVChicago Women
p2647
aVLiberation Union
p2648
aVWOMANKIND
p2649
aVLIBERATION
p2650
aVCWLU
p2651
aVChicago Women
p2652
aVLiberation Union Speaker
p2653
aVCWLU Speaker
p2654
aVCLINIC Women
p2655
aVChicago Women
p2656
aVLiberation Union
p2657
aVCWLU
p2658
aVCWLU
p2659
aVLIBERATION
p2660
aVLiberation School
p2661
aVCWLU
p2662
aVPolitical History
p2663
aVCWLU
p2664
aVLiberation School
p2665
aVConcord Medical Center
p2666
aVMedical Facility
p2667
aVChicago Women
p2668
aVLiberation Union
p2669
aVMedical Center
p2670
aVCounty Hospital
p2671
aVReese
p2672
aVPopulation Center
p2673
aVARE
p2674
aVLiberation School
p2675
aVHealth Service
p2676
aVLiberation Union
p2677
aVCWAR
p2678
aVChicago Wo
p2679
aVCWAR
p2680
aVCWAR
p2681
aVWQMANKIND
p2682
aVCWAR
p2683
aVMidwest Buddhist Temple
p2684
aVFriendship Association
p2685
aVChicago Women
p2686
aVLiberation Union
p2687
aVPUBLIC
p2688
aVLNS
p2689
aVPortuguese Committee
p2690
aVNew Portuguese
p2691
aVPortuguese Letters
p2692
aVPortuguese Letters
p2693
aVSupreme Court
p2694
aVWestside Women
p2695
aVBLOW
p2696
aVLNS
p2697
aVRowland High School
p2698
aVCommunity
p2699
aVVICTORY
p2700
aVAT
p2701
aVOneida
p2702
aVTextile Worker
p2703
aVOneida
p2704
aVWOMEN
p2705
aVLNS
p2706
aVJOBS
p2707
aVTHE
p2708
aVAngry Women
p2709
aVCatholic Church
p2710
aVNOW
p2711
aVAFSCME
p2712
aVCWLU
p2713
aVUnited Auto Workers
p2714
aVUnited Farmworkers
p2715
aVREFUSED
p2716
aVUS
p2717
aVUS
p2718
aVEGG
p2719
aVCPS
p2720
aVAdministration
p2721
aVOINK
p2722
aVOINK
p2723
aVDARE
p2724
aVCWLU
p2725
aVDARE
p2726
aVFair Employment Practices Commis
p2727
aVFEPC
p2728
aVDARE
p2729
aVStewart-Warner
p2730
aVFEPC
p2731
aVEEOC
p2732
aVEqual Opportunities Commission
p2733
aVDARE
p2734
aVStew
p2735
aVEEOC
p2736
aVFEPC
p2737
aVDARE
p2738
aVChicago Women
p2739
aVLiberation Union
p2740
aVCWLU
p2741
aVLiberation School
p2742
aVLiberation School
p2743
aVCWLU
p2744
aVChicago Board
p2745
aVAbortion Task Force
p2746
aVBoard
p2747
aVBoard
p2748
aVBoard
p2749
aVAbortion Task Force
p2750
aVHERS
p2751
aVTask Force
p2752
aVTask
p2753
aVTask Force
p2754
aVTask Force
p2755
aVINSECURE
p2756
aVTHE
p2757
aVINSECURE
p2758
aVTIMD
p2759
aVTIMD
p2760
aVTIMD
p2761
aVYOU
p2762
aVMORE
p2763
aVPlaythings
p2764
aVTHE
p2765
aVINSECURE
p2766
aVDA
p2767
aVOneida Comany
p2768
aVFarah
p2769
aVOneida
p2770
aVFarah
p2771
aVFarah
p2772
aVUnited Farmworkers
p2773
aVWOMANKIND
p2774
aVWorkers Solidarity Committee
p2775
aVUnited Textile Workers
p2776
aVUnited Farm Workers
p2777
aVDARE
p2778
aVDARE
p2779
aVOneida
p2780
aVUnited Farm Workers
p2781
aVTHE
p2782
aVAND
p2783
aVPOW
p2784
aVPOW
p2785
aVPOW
p2786
aVPOW
p2787
aVPOW Col
p2788
aVPentagon
p2789
aVPentagon
p2790
aVPOW
p2791
aVCONCERN
p2792
aVPOW
p2793
aVTHE
p2794
aVPOW
p2795
aVSTORIES
p2796
aVWHERE
p2797
aVEIGHT
p2798
aVAFRAID
p2799
aVTHE
p2800
aVHistorical Museum
p2801
aVWHERE
p2802
aVTHE
p2803
aVCHECKERS
p2804
aVPOW
p2805
aVTHE
p2806
aVPOW
p2807
aVTHE
p2808
aVTIME
p2809
aVSOME
p2810
aVTHE
p2811
aVVVAW
p2812
aVDEWEY
p2813
aVVETS
p2814
aVCAPITOL
p2815
aVWOMANKIND
p2816
aVSDS
p2817
aVSDS
p2818
aVSDS
p2819
aVSDS
p2820
aVWeatherman
p2821
aVWeatherman
p2822
aVProvisional
p2823
aVAttica
p2824
aVNew Left
p2825
aVSDS
p2826
aVDaily News
p2827
aVTHE
p2828
aVLIBERATION Union The Chicago Women
p2829
aVLiberation Union
p2830
aVCWLU
p2831
aVCWLU
p2832
aVWOMANKIND
p2833
aVCWLU
p2834
aVCWLU
p2835
aVCWLU
p2836
aVSupreme Court
p2837
aVCWLU
p2838
aVCWLU
p2839
aVCWLU
p2840
aVRAPE
p2841
aVRape Project
p2842
aVSister Center
p2843
aVJOB
p2844
aVAND
p2845
aVCWLU
p2846
aVART
p2847
aVAND
p2848
aVChicago Women
p2849
aVCWLU
p2850
aVTHE
p2851
aVWORD
p2852
aVCWLU
p2853
aVCWLU
p2854
aVCWLU
p2855
aVCWLU
p2856
aVCWLU
p2857
aVChicago Women
p2858
aVLiberation Union
p2859
aVFarmworkers
p2860
aVLITTLE
p2861
aVUnited Farmwork
p2862
aVOrganizing Committee
p2863
aVUnited Farmworkers Union
p2864
aVUFW
p2865
aVUFW
p2866
aVTeamsters Union
p2867
aVUnited Farmworkers Union
p2868
aVTeamsters
p2869
aVTeamsters
p2870
aVUFW
p2871
aVUFW
p2872
aVTeamsters
p2873
aVFarmworkers
p2874
aVJewel
p2875
aVUFW
p2876
aVUFW
p2877
aVUFW
p2878
aVCWLU
p2879
aVCWLU
p2880
aVTHE
p2881
aVLIBERATION
p2882
aVColumbia College
p2883
aVCWLU
p2884
aVCWLU
p2885
aVCWLU
p2886
aVHERS
p2887
aVDARE
p2888
aVSW
p2889
aVMOVIN
p2890
aVNew Women
p2891
aVVICTORY
p2892
aVAT
p2893
aVGeneral Electric
p2894
aVEqual Pay Act
p2895
aVInternational Union
p2896
aVElectrical Workers
p2897
aVWOMANKIND
p2898
aVChicago Women
p2899
aVLiberation Union
p2900
aVFAIR
p2901
aVCWLU
p2902
aVCALENDAR
p2903
aVCWLU
p2904
aVUSDA
p2905
aVBismarck Hotel
p2906
aVKraft
p2907
aVIllinois Fair Employment Practices Commission
p2908
aVUSDA
p2909
aVFEPC
p2910
aVKraft
p2911
aVKRAFTSWOMAN
p2912
aVKRAFTSMEN
p2913
aVKraft Foods
p2914
aVKraft
p2915
aVTHE
p2916
aVTHE
p2917
aVSupreme Court
p2918
aVJudges
p2919
aVLegislative Council
p2920
aVDOVE Washington
p2921
aVLNS
p2922
aVDemocratic Institutions
p2923
aVSheraton Park Hotel
p2924
aVSecret Service
p2925
aVLNS
p2926
aVSt. Louis Review
p2927
aVYNow Los Angeles Times
p2928
aVKey Biscayne
p2929
aVKey Biscayne
p2930
aVD C
p2931
aVLNS
p2932
aVPROTEST
p2933
aVAND
p2934
aVTaskforce
p2935
aVEquity Action League
p2936
aVWEAL
p2937
aVTexas Education Agency
p2938
aVWEAL
p2939
aVLOOKIN
p2940
aVAT
p2941
aVMitchell
p2942
aVKleindienst
p2943
aVWatergate
p2944
aVTeamsters
p2945
aVTeamsters
p2946
aVUnited Farmworkers Union
p2947
aVLADY
p2948
aVBuilders Laborers Federa
p2949
aVTHE
p2950
aVUAW
p2951
aVEqual Employment Opportunities
p2952
aVEEOC
p2953
aVFair Employment Practices Commission
p2954
aVFEPC
p2955
aVDARE
p2956
aVCook County Hospital
p2957
aVSupreme Court
p2958
aVState
p2959
aVCHILDCARE Daycare
p2960
aVNational Organization
p2961
aVAHEAD Real
p2962
aVFOUR
p2963
aVLETTER
p2964
aVPolice Department
p2965
aVCLAW
p2966
aVCLAW
p2967
aVState
p2968
aVState
p2969
aVCLAW
p2970
aVState
p2971
aVState
p2972
aVCLAW
p2973
aVState
p2974
aVCWAR
p2975
aVCMC
p2976
aVMaternity Center
p2977
aVMaternity Center
p2978
aVCMC
p2979
aVCMC
p2980
aVCMC
p2981
aVMaternity Center
p2982
aVNorthwester Medical School
p2983
aVMaternity Center
p2984
aVMaternity Center
p2985
aVMaternity Center
p2986
aVWOMEN
p2987
aVChicago Women
p2988
aVLiberation Union
p2989
aVCWLU
p2990
aVCWLU
p2991
aVCWLU
p2992
aVCWLU
p2993
aVChicago Women
p2994
aVLiberation Union
p2995
aVGET
p2996
aVChicago Women
p2997
aVLiberation Union
p2998
aVCWLU
p2999
aVLiberation School
p3000
aVLIBERATION Union The
p3001
aVLIBERATION
p3002
aVLiberation School
p3003
aVCWLU
p3004
aVWOMANKIND
p3005
aVCWLU
p3006
aVLiberation School
p3007
aVCWLU
p3008
aVCWLU Health Program
p3009
aVHealth Evaluation
p3010
aVReferral Service
p3011
aVHERS
p3012
aVAbortion Task Force
p3013
aVCWLU
p3014
aVATF
p3015
aVRAPE
p3016
aVRape Project
p3017
aVSister Center
p3018
aVRape Project
p3019
aVCWLU
p3020
aVAND
p3021
aVDARE
p3022
aVSenate Subcommittee
p3023
aVBE
p3024
aVChicao Women
p3025
aVLiberation Union
p3026
aVSHE
p3027
aVANY
p3028
aVGrace Lutheran Church
p3029
aVCare Division
p3030
aVDance Collective
p3031
aVManhattan Bank
p3032
aVDow Chemical
p3033
aVRights Committee
p3034
aVPark Distrcit
p3035
aVIllinois Women
p3036
aVPlayboy
p3037
aVSister Center The Sister Center
p3038
aVHealth Center
p3039
aVWomens Liberation No
p3040
aVFire Dept
p3041
aVMedical College
p3042
aVHealth Rights News
p3043
aVGlenwood National Organization
p3044
aVChicago Welfare Rights
p3045
aVRapid Transit Street Theatre
p3046
aVPanther Party
p3047
aVStone Temple Lawndale
p3048
aVWomankind Ghots
p3049
aVReview Committee
p3050
aVWomen Voters
p3051
aVGrace Lutheran Church
p3052
aVWomen Chicago Women
p3053
aVSanta Barbara National Labaor Relations Women
p3054
aVFeminist Voice
p3055
aVFeminist Voice
p3056
aVWomankind
p3057
aVWomankind
p3058
aVWesley Memorial
p3059
aVWestern Electric
p3060
aVWestern Electric
p3061
aVTrade Union League
p3062
aVTriangle Waist Company
p3063
aVSt. Vincents
p3064
aVSt. Vincents
p3065
aVFamily Services
p3066
aVBantu Authority System
p3067
aVDomestic Relations Court
p3068
aVDomestic Relations Court
p3069
aVStandard Oil
p3070
aVLoan Associations
p3071
aVPrepared Childbirt Families
p3072
aVAuto Mechanics
p3073
aVWright Junior College
p3074
aVTot Lot
p3075
aVViet Minh
p3076
aVFront Against Imperialism
p3077
aVViet Cong
p3078
aVViet Cong
p3079
aVWheadon Methodist Church
p3080
aVField House
p3081
aVWesley Memorial Hospital
p3082
aVAugustana Lutheran Church
p3083
aVWoodlawn Rogers Park
p3084
aVEvanston Women
p3085
aVIllinois Women
p3086
aVWomens Center The Chicago Women
p3087
aVEdgewater Womens Center
p3088
aVLane Tech High School
p3089
aVBowen High School
p3090
aVChicago School Board
p3091
aVDistrict Court
p3092
aVSeven Chicago
p3093
aVWomen Want
p3094
aVHealth Book Collective
p3095
aVBoston Women
p3096
aVHealth Book Collective
p3097
aVTribune
p3098
aVFederally Employed Women
p3099
aVUrban Dev
p3100
aVFederally Employed Women
p3101
aVMalcolm X Community College
p3102
aVDaily News
p3103
aVLesbian Conference
p3104
aVLaw Caucus
p3105
aVSchool Grace Lutheran
p3106
aVBelden Legal Clinci
p3107
aVWomen Against Rape
p3108
aVWomen Voters
p3109
aVKenwood Community Conference
p3110
aVWright Junior College
p3111
aVUnion Local
p3112
aVMountain Moving
p3113
aVMountain Mvoing
p3114
aVHealth Department
p3115
aVBerkeley NOW
p3116
aVMaoists
p3117
aVWomankind
p3118
aVChicago Women
p3119
aVMunicipal Employees
p3120
aVContact CWLU
p3121
aVWright Junior College
p3122
aVAuto Mechanics
p3123
aVBlack Pather
p3124
aVUp Angry
p3125
aVLe Monde
p3126
aVGulf Oil
p3127
aVLincoln Park Presbyterian
p3128
aVRock Band
p3129
aVWeiss Memorial Hospital
p3130
aVWeiss Hospital
p3131
aVWeiss Hospital
p3132
aVDaily News
p3133
aVBlack Panther
p3134
aVGrace Lutheran Church
p3135
aVAbortion Seven Defense Committee
p3136
aVGraphics Collective
p3137
aVGraphics Collective
p3138
aVAdopt One
p3139
aVWomen Fear Success
p3140
aVLesbian Love
p3141
aVMountain Moving
p3142
aVValley Community College
p3143
aVWomens Liberation Rock
p3144
aVUp Angry
p3145
aVRock Band Evanston Women
p3146
aVMidwest Women
p3147
aVCarbondale
p3148
aVMidwest Women
p3149
aVFalalalalalalalala Women
p3150
aVWomen DARE
p3151
aVGraphics Collective
p3152
aVRock Band
p3153
aVViet Cong
p3154
aVDrug Administration
p3155
aVMobil Oil
p3156
aVMaternity Center
p3157
aVChicago Women
p3158
aVEvanston Women
p3159
aVMountain Moving
p3160
aVEvanston Hospital
p3161
aVMaternity Center
p3162
aVMilitary Sea Transport Services
p3163
aVCorps School
p3164
aVPfizer
p3165
aVPfizer
p3166
aVPfizer
p3167
aVHealth Center
p3168
aVWomen DARE
p3169
aVGraphics Collective
p3170
aVRock Band
p3171
aVPick Congress Hotel
p3172
aVLoop Center YWCA
p3173
aVLoop Center YWCA
p3174
aVGraphics Collective
p3175
aVGraphics Collective
p3176
aVExecutive Board
p3177
aVWesley Hospital
p3178
aVWomen Voters
p3179
aVMunicipal Employees
p3180
aVMcCormick Seminary
p3181
aVSuprme Court
p3182
aVWomen DARE
p3183
aVGraphics Collective
p3184
aVRock Band
p3185
aVLocal N0
p3186
aVMcCormick Seminary
p3187
aVKenwood Community
p3188
aVSouthwest College Women
p3189
aVPulaski International Womens
p3190
aVMcCormick Seminary
p3191
aVChicago Lesbian Liberation
p3192
aVSouthwest College
p3193
aVAir Force
p3194
aVTrade Union League
p3195
aVTrade Union League
p3196
aVUptown Lutheran
p3197
aVChicao Chicago Sun Times
p3198
aVModel Cities-Chicago Committee
p3199
aVDrug Administration
p3200
aVFood Stamp Program
p3201
aVFood Stamp Program
p3202
aVChicago TRANSIT Authority
p3203
aVWomen DARE
p3204
aVGraphics Collective
p3205
aVRock Band
p3206
aVJunior College Women
p3207
aVRape Crisis Lines
p3208
aVLoop Cneter
p3209
aVGrant Hospital
p3210
aVOgala Sioux
p3211
aVSioux Nation
p3212
aVWomankind
p3213
aVWomen DARE
p3214
aVGraphics Collective
p3215
aVRock Band
p3216
aVWomankind
p3217
aVAugustana Lutheran Church
p3218
aVWomen DARE
p3219
aVLesbian Pulbications
p3220
aVLesbian Liberation
p3221
aVLesbian Liberation
p3222
aVIll Reproductive Health Center
p3223
aVCook County Hospital Abortion Clinic
p3224
aVFamily Planning Assn
p3225
aVMidwest Family Planning Assn
p3226
aVPlanned Parenthood
p3227
aVSouthwest Community College
p3228
aVRock Band
p3229
aVFamily Services
p3230
aVFamily Services
p3231
aVBeacon Press
p3232
aVDrug Administration
p3233
aVIllinois Bell
p3234
aVIllinois Bell
p3235
aVIllinois Bell
p3236
aVIllinois Bell
p3237
aVWomen DARE
p3238
aVGraphics Collective
p3239
aVRock Band
p3240
aVMidwest Population Center
p3241
aVIllinois Reproductive Health Clinic
p3242
aVFamily Planning
p3243
aVIllinois Masonic
p3244
aVFamily Planning
p3245
aVAugustana Luteran Church
p3246
aVAgainst Rape
p3247
aVRowland High School
p3248
aVRoman Catholic Cathedral
p3249
aVOperation PUSH
p3250
aVMunicipal Employees
p3251
aVWomen Employed
p3252
aVWeatherman
p3253
aVWomen DARE
p3254
aVGraphics Collective
p3255
aVRock Band
p3256
aVLavender Women
p3257
aVLesbian Survival School
p3258
aVKraft Foods
p3259
aVWomen Employed
p3260
aVKraft Foods
p3261
aVWomen Employed
p3262
aVWales Supreme Court
p3263
aVChicago Legal
p3264
aVWomen Against Rape
p3265
aVChicago Maternity Center
p3266
aVMaternity Center History
p3267
aVWesley Memorial
p3268
aVWesley Memorial
p3269
aVGraphics Collective
p3270
aVParents Anonymous
p3271
aVParents Anonymous
p3272
aVDrug Administration
p3273
aa(lp3274
VWade Parker
p3275
aVHeather Booth
p3276
aVNancy Neswich
p3277
aVJoan Gilmour
p3278
aVSenn
p3279
aVMars
p3280
aVJohnson
p3281
aVNixon
p3282
aVJill
p3283
aVRachel
p3284
aVAdam
p3285
aVAdam
p3286
aVRachel
p3287
aVAdam
p3288
aVRachel
p3289
aVAdam
p3290
aVAdam
p3291
aVRachel
p3292
aVAdam
p3293
aVRachel
p3294
aVRachel
p3295
aVAdam
p3296
aVAdam
p3297
aVRachel
p3298
aVRachel
p3299
aVAdam
p3300
aVAdam
p3301
aVAdam
p3302
aVRachel
p3303
aVAdam
p3304
aVCarol
p3305
aVCarol
p3306
aVCarol
p3307
aVCarol
p3308
aVCarol
p3309
aVCarol
p3310
aVCarold
p3311
aVCarol
p3312
aVCarol
p3313
aVCarol
p3314
aVNixon
p3315
aVNixon
p3316
aVNixon
p3317
aVMr. Nixon
p3318
aVMr. Nixon
p3319
aVNbeen
p3320
aVNixon
p3321
aVNixon
p3322
aVNixon
p3323
aVSteinem
p3324
aVGrace
p3325
aVAnne Roberts
p3326
aVJean
p3327
aVTepperman
p3328
aVLinda Hirshman
p3329
aVKit Duffy
p3330
aVShulamith Firestone
p3331
aVAnn Chicago
p3332
aVRichard
p3333
aVDaley
p3334
aVDaley
p3335
aVMR. SMITH
p3336
aVMargie
p3337
aVPiercy KARATE
p3338
aVHard
p3339
aVMick Jagger
p3340
aVPamela
p3341
aVAlice
p3342
aVSee
p3343
aVMargaret
p3344
aVBarbara
p3345
aVSugar
p3346
aVSusie
p3347
aVFrank
p3348
aVSuzie
p3349
aVSusie
p3350
aVSolicitor
p3351
aVGriswold
p3352
aVLoverta Alexander
p3353
aVGeorgia Townsend
p3354
aVLoverta Alexander
p3355
aVGeorgia Townsend
p3356
aVSugar
p3357
aVAnne Hutchinson
p3358
aVSojourner Truth
p3359
aVEleanor Flexnor
p3360
aVSojournor Truth
p3361
aVHarriet Tubman
p3362
aVLucretia Mott Elizabeth Cady Stanton
p3363
aVSarah Grimke
p3364
aVAnne Hutchinson
p3365
aVAnne
p3366
aVMary Dyer
p3367
aVMary
p3368
aVDyer
p3369
aVSojourn
p3370
aVSojourner
p3371
aVLollipop
p3372
aVChapenl Hill
p3373
aVEli Whitney
p3374
aVCatharine Greene
p3375
aVValentina V. Tereshkova
p3376
aVSojourner
p3377
aVJesus
p3378
aVAllison
p3379
aVBarry Childare
p3380
aVPelvic
p3381
aVNixon
p3382
aVStella Skrebys
p3383
aVSkrebys
p3384
aVHeather
p3385
aVMargaret Womankind
p3386
aVGrantley
p3387
aVQuick
p3388
aVJoseph B
p3389
aVDe Lee
p3390
aVFlorynce Kennedy
p3391
aVDiane Schulder
p3392
aVLawrence Lader
p3393
aVCathie
p3394
aVMary Blake
p3395
aVKennelle Y
p3396
aVMary
p3397
aVGertrude Stein
p3398
aVStein
p3399
aVPapa
p3400
aVHarry Willets
p3401
aVHarry
p3402
aVJudy
p3403
aVGrahn Gertrude Stein
p3404
aVAlice B. Toklas
p3405
aVStein
p3406
aVJohn Schmitt
p3407
aVElizabeth
p3408
aVDucan Koontz
p3409
aVKathryn F. Clarenbach
p3410
aVChairwoman
p3411
aVJefferson
p3412
aVPicasso
p3413
aVBernard
p3414
aVErika NOVEMBER
p3415
aVElizabeth Blackwell
p3416
aVHarold I. Kaplan
p3417
aVKaplan
p3418
aVMarquette
p3419
aVDunn
p3420
aVLaura Green
p3421
aVDaniel
p3422
aVJohnson
p3423
aVEugenia S. Chapman
p3424
aVMiss Jane Dow
p3425
aVMr. Joe Smoe
p3426
aVDiane
p3427
aVLind
p3428
aVNixon
p3429
aVNixon
p3430
aVJames Warner
p3431
aVLouis Jone
p3432
aVJones
p3433
aVLaird
p3434
aVZiegler
p3435
aVElaine
p3436
aVSort
p3437
aVMary Deaton
p3438
aVJudy
p3439
aVSyfers
p3440
aVMother Lode
p3441
aVOgilvie
p3442
aVNixon
p3443
aVNixon
p3444
aVNixon
p3445
aVNixon
p3446
aVOgilvie
p3447
aVJones
p3448
aVRockefeller
p3449
aVKathy Evans
p3450
aVKathy
p3451
aVJohn
p3452
aVSally
p3453
aVMiriam Makeba
p3454
aVAngela Davis
p3455
aVErika Huggins
p3456
aVErika
p3457
aVAngela
p3458
aVDavis
p3459
aVAngela
p3460
aVAngela
p3461
aVDavis
p3462
aVErika Huggins
p3463
aVMartians
p3464
aVAngela Davis
p3465
aVBrandeis U
p3466
aVAngela
p3467
aVAngela
p3468
aVHerbert Marcuse
p3469
aVAngela
p3470
aVJohn Huggins
p3471
aVEricka Huggins
p3472
aVBunchy Carter
p3473
aVGeorge Jackson
p3474
aVJonathan
p3475
aVJonathan
p3476
aVJackson
p3477
aVJonathan Jackson
p3478
aVAngela Davis
p3479
aVAngela
p3480
aVAngela
p3481
aVAngela
p3482
aVMai Huggins
p3483
aVErika
p3484
aVHuggins
p3485
aVJohn Huggins
p3486
aVErika
p3487
aVErika
p3488
aVErika Huggins
p3489
aVBooy Seale
p3490
aVErika Huggins
p3491
aVFred Hampton
p3492
aVMark Clar
p3493
aVBobby Seale.well
p3494
aVRobin
p3495
aVSo
p3496
aVGrantly Dick-Read
p3497
aVRead
p3498
aVPavlov
p3499
aVRead
p3500
aVRead
p3501
aVRead
p3502
aVJudy
p3503
aVMcCalls
p3504
aVEleanor Clift
p3505
aVClifford R. Wheeless
p3506
aVBovs
p3507
aVNixon
p3508
aVKathy Blunt
p3509
aVReuben
p3510
aVBetsy
p3511
aVSambo
p3512
aVMr. Huckaby
p3513
aVMr.
p3514
aVMr. Huckaby
p3515
aVSambo
p3516
aVDimes Dandy
p3517
aVSue
p3518
aVMaria
p3519
aVRiver Forest
p3520
aVBlack IMria
p3521
aVMass
p3522
aVAdam
p3523
aVMallus Malefriarum
p3524
aVKramu
p3525
aVSpringer
p3526
aVMontague
p3527
aVDevil
p3528
aVMark
p3529
aVTrier
p3530
aVMarianne
p3531
aVCon
p3532
aVRobin
p3533
aVDear Elaine
p3534
aVMama Who
p3535
aVMom
p3536
aVFreud
p3537
aVMom
p3538
aVMom
p3539
aVNixon
p3540
aVNixon
p3541
aVNixon
p3542
aVNixon
p3543
aVNixon
p3544
aVMargaret
p3545
aVNixon
p3546
aVNixon
p3547
aVNixon
p3548
aVNixon
p3549
aVNixon
p3550
aVNixon
p3551
aVNixon
p3552
aVNixon
p3553
aVNixon
p3554
aVNixon
p3555
aVYork
p3556
aVNixon
p3557
aVJames
p3558
aVLouis
p3559
aVSemmelweiss
p3560
aVTucker
p3561
aVTucker
p3562
aVTucker
p3563
aVWesley
p3564
aVPins
p3565
aVTucker
p3566
aVJoy
p3567
aVPat
p3568
aVJohn
p3569
aVNeo Playboy
p3570
aVJohnson
p3571
aVWill
p3572
aVCathy
p3573
aVMa Bell
p3574
aVBernadette
p3575
aVBernadette
p3576
aVOliver Cromwell
p3577
aVPat
p3578
aVPat
p3579
aVPat
p3580
aVIreland
p3581
aVEire
p3582
aVPat
p3583
aVClara Zetkin
p3584
aVLenin
p3585
aVLeiserson
p3586
aVBlack Maria
p3587
aVGeorge Bernard Shaw
p3588
aVNixon
p3589
aVNixon
p3590
aVNixon
p3591
aVNixon
p3592
aVWounded
p3593
aVNixon
p3594
aVNixon
p3595
aVNixon
p3596
aVSue
p3597
aVMayor Daley
p3598
aVDaley
p3599
aVNixon
p3600
aVRockefeller
p3601
aVMuskie
p3602
aVKennedy
p3603
aVJohnson
p3604
aVGoldwater
p3605
aVHenry Kissinger
p3606
aVJohnson
p3607
aVRobert
p3608
aVJohnson
p3609
aVJohnson
p3610
aVJohnson
p3611
aVNixon
p3612
aVMurrell Syler
p3613
aVVincents
p3614
aVVincents
p3615
aVVincents
p3616
aVVincents
p3617
aVJoy
p3618
aVMahatma Gandhi
p3619
aVRose Schneiderman
p3620
aVUraguayan Tupamaros
p3621
aVMother Jones
p3622
aVElla Reeve Bloor
p3623
aVSojurner Truth
p3624
aVElizabeth Gurley Flynn
p3625
aVMother Jones
p3626
aVBreada
p3627
aVRoses
p3628
aVJame Oppenheim
p3629
aVRoses
p3630
aVRoses
p3631
aVRoses
p3632
aVBreaad
p3633
aVRoses
p3634
aVRoses Cathie
p3635
aVEleanor Flexner Atheneum
p3636
aVPiece Elizabeth Gurley Flynn Masses
p3637
aVRichard O. Boyer
p3638
aVHerbert M. Morais
p3639
aVRadio
p3640
aVMelvyn Dubofsky University
p3641
aVNixqn
p3642
aVMs. Ruby Mabry
p3643
aVOgilvie
p3644
aVOgilvie
p3645
aVOgilvie
p3646
aVBill
p3647
aVMaurice Lee
p3648
aVSmall
p3649
aVSter
p3650
aVKimbark
p3651
aVLinda Friedman
p3652
aVSigmund
p3653
aVFreud
p3654
aVFreud
p3655
aVFreud
p3656
aVFreud
p3657
aVFreud
p3658
aVFreud
p3659
aVFreud
p3660
aVMargaret
p3661
aVAyrie
p3662
aVTgroups
p3663
aVTgroups
p3664
aVBumper Jack
p3665
aVRobin22
p3666
aVNoyes
p3667
aVPark
p3668
aVSue
p3669
aVCathy
p3670
aVCathy
p3671
aVWallace
p3672
aVGeorge Wallace
p3673
aVWallace
p3674
aVWallace
p3675
aVWallace
p3676
aVWallace
p3677
aVWallace
p3678
aVNixon
p3679
aVNixon
p3680
aVPeter Nash
p3681
aVRobert Dole
p3682
aVCharles Percy Federal
p3683
aVIll Governor
p3684
aVRichard Ogilvie
p3685
aVIll Cont
p3686
aVNixon
p3687
aVNixon
p3688
aVNixon
p3689
aVAllende
p3690
aVPublic Superintendent
p3691
aVJames Remond
p3692
aVCarson
p3693
aVPirie
p3694
aVScott
p3695
aVKimbark
p3696
aVBill Weber
p3697
aVHelen
p3698
aVLinda
p3699
aVThieu
p3700
aVNixon
p3701
aVNixon
p3702
aVThieu
p3703
aVNixon
p3704
aVNixon
p3705
aVNixon
p3706
aVNixon
p3707
aVFrederick P. Mitchell
p3708
aVPick
p3709
aVKahn
p3710
aVNguyen Ai Quoc
p3711
aVHo Chi Minh
p3712
aVHo
p3713
aVNgo Dinh Diem
p3714
aVMichael Morrow
p3715
aVHo
p3716
aVHo
p3717
aVHanoi
p3718
aVBao Dai
p3719
aVBrunswick
p3720
aVBrunswick
p3721
aVBruns
p3722
aVBill Yancy
p3723
aVBrunswick
p3724
aVSanta Monica
p3725
aVBill Yancy
p3726
aVClark
p3727
aVWalton Streets
p3728
aVNixon
p3729
aVThieu
p3730
aVNixon
p3731
aVNixon
p3732
aVNixon
p3733
aVJohnson
p3734
aVNixon
p3735
aVNixon
p3736
aVTrung Trac
p3737
aVTrung Nhi
p3738
aVMadame Thieu
p3739
aVThieu
p3740
aVThieu
p3741
aVNgo Ba Thanh
p3742
aVNixon
p3743
aVMinh Khai
p3744
aVHo Chi Minh
p3745
aVBao Dai
p3746
aVPeoples
p3747
aVBao Dai
p3748
aVBao Dal
p3749
aVDiem
p3750
aVDiem
p3751
aVViet Sauith
p3752
aVHo Chi Minh
p3753
aVHo
p3754
aVEisenhower
p3755
aVHo Chi Minh
p3756
aVDiem
p3757
aVHo
p3758
aVDiems
p3759
aVMaxwell
p3760
aVTaylor
p3761
aVDiem
p3762
aVNguyen Cao Ky
p3763
aVNguyen
p3764
aVHitler
p3765
aVJohnson
p3766
aVJohnson
p3767
aVJohnson
p3768
aVNixon
p3769
aVNixon
p3770
aVNixon
p3771
aVNixon
p3772
aVNixon
p3773
aVLouis Jones
p3774
aVLouis Jones
p3775
aVNixon
p3776
aVMiami
p3777
aVNixon
p3778
aVNixon
p3779
aVDavis Angela Davis
p3780
aVAngela Davis
p3781
aVGeorge Jackson
p3782
aVMr. Harris E
p3783
aVGeorge Jackson
p3784
aVGeorge Jackson
p3785
aVGeorge Jackson
p3786
aVFleeta Drumgo
p3787
aVJohn Cluchette
p3788
aVAngela Davis
p3789
aVMass
p3790
aVCronin
p3791
aVCronin
p3792
aVMarion
p3793
aVMarion
p3794
aVElaine Weasel Inside
p3795
aVMary Wollstonecraft
p3796
aVCharlotte Perkins Gilman
p3797
aVEmma Goldman
p3798
aVShulamith Firestone
p3799
aVMorse
p3800
aVWheadon Metho
p3801
aVWacker
p3802
aVClark
p3803
aVAnn
p3804
aVCathy
p3805
aVUncle Sam
p3806
aVUncle Sam
p3807
aVHenry Hyde
p3808
aVNancy
p3809
aVEdward Hanrahan
p3810
aVDiane
p3811
aVJudy
p3812
aVMartha
p3813
aVLinnea
p3814
aVBecker
p3815
aVLawrence
p3816
aVLader
p3817
aVLader
p3818
aVPius
p3819
aVAnthony Comstock
p3820
aVSato
p3821
aVNixon
p3822
aVNixon
p3823
aVNixon
p3824
aVNgo Dinh Diem
p3825
aVNixon
p3826
aVQuant Tri
p3827
aVChau Doc
p3828
aVTom That Man
p3829
aVAi Tu
p3830
aVCarroll
p3831
aVLy Van Sau
p3832
aVNixon
p3833
aVNixon
p3834
aVNixon
p3835
aVGeorge Romney
p3836
aVUncle Sam
p3837
aVMalcolm X
p3838
aVFreud
p3839
aVJohnson
p3840
aVKinsey
p3841
aVFreud
p3842
aVNixon
p3843
aVFarces
p3844
aVNavy
p3845
aVDeb
p3846
aVJenny
p3847
aVFoster
p3848
aVClark
p3849
aVCathy
p3850
aVAnn
p3851
aVSojourner Truth
p3852
aVDolores Ibarrurri
p3853
aVMother Jones
p3854
aVSue Davenport
p3855
aVAngela Davis
p3856
aVAngela Davis
p3857
aVGeorge Jackson
p3858
aVGeorge
p3859
aVJackson
p3860
aVJonathan Jackson
p3861
aVGeorge
p3862
aVJonathan
p3863
aVMarin County Courthouse
p3864
aVJonathan Jackson
p3865
aVAngelo Davis
p3866
aVAngela
p3867
aVJonathan
p3868
aVGeorge Jackson
p3869
aVAttica
p3870
aVAngela Davis
p3871
aVAngela
p3872
aVGeorge Jackson
p3873
aVLeo Branton
p3874
aVJonathan Jackson
p3875
aVAngela Davis
p3876
aVAngela
p3877
aVAngela
p3878
aVYoko Ono
p3879
aVLarry O'Brien
p3880
aVNomilia
p3881
aVMyco
p3882
aVTrich
p3883
aVFlagyl
p3884
aVTrich
p3885
aVTrich
p3886
aVTrich
p3887
aVSultrin
p3888
aVFuracin
p3889
aVTrich
p3890
aVGantrisin
p3891
aVGantrisin
p3892
aVTetra
p3893
aVGantrisin
p3894
aVSores Occaionally
p3895
aVDick
p3896
aVJane
p3897
aVGeorge
p3898
aVHenry Ford
p3899
aVNixon
p3900
aVGeorge Washington
p3901
aVMr. Clean
p3902
aVMr. Pullman
p3903
aVMargaret
p3904
aVRennie Davis
p3905
aVDave Dellinger
p3906
aVTom Hayden
p3907
aVDellinger
p3908
aVDavis
p3909
aVMme Binh
p3910
aVNixon
p3911
aVDellinger
p3912
aVNixon
p3913
aVNixon
p3914
aVHanoi
p3915
aVJohnson
p3916
aVAmir
p3917
aVAmir
p3918
aVAlan
p3919
aVObispo
p3920
aVAmir
p3921
aVCarry
p3922
aVKnife Hand
p3923
aVRichard M. Nixon
p3924
aVGeorge McGovern
p3925
aVMuskie
p3926
aVDaley
p3927
aVDaley
p3928
aVNixon
p3929
aVNixon
p3930
aVAttorny General
p3931
aVNixon
p3932
aVNixon
p3933
aVNixon
p3934
aVWill
p3935
aVElbow Blow
p3936
aVKwell
p3937
aVNixon
p3938
aVAnloc
p3939
aVKontum
p3940
aVHue
p3941
aVThieu
p3942
aVThieu
p3943
aVThieu
p3944
aVThieu
p3945
aVDellinger
p3946
aVDavis
p3947
aVMr. Nixon
p3948
aVMr. Vy
p3949
aVNixon
p3950
aVCathy
p3951
aVAnn
p3952
aVAlpha Rubey
p3953
aVRoyanne Rosenberg
p3954
aVSue Davenport
p3955
aVAnese Heston
p3956
aVDaley
p3957
aVJohn F. Hechinger
p3958
aVJoseph F. Fitzgerald
p3959
aVFritzi Engelstein Clinic
p3960
aVAug
p3961
aVDon
p3962
aVNixon
p3963
aVBurger
p3964
aVNixon
p3965
aVWilliam Douglas
p3966
aVBlackmun
p3967
aVCour
p3968
aVBurger
p3969
aVBurer
p3970
aVNixon
p3971
aVNixon
p3972
aVNixon
p3973
aVVan
p3974
aVPearl Buck
p3975
aVHo Chi Minh
p3976
aVHanoi
p3977
aVUncle Phal
p3978
aVNguyen
p3979
aVLe Mai
p3980
aVVan
p3981
aVLe Mai
p3982
aVEileen
p3983
aVKreutz Eileen Kreutz
p3984
aVMongolia
p3985
aVSoandso
p3986
aVSoandso
p3987
aVSoandso
p3988
aVSara
p3989
aVMargie
p3990
aVAlbert
p3991
aVWilliams
p3992
aVFriso Henstra
p3993
aVBedelia
p3994
aVLord Garp
p3995
aVGarp
p3996
aVJane Yolen
p3997
aVEd Young
p3998
aVDjeow
p3999
aVYoung
p4000
aVDjeow
p4001
aVDjeow Seow
p4002
aVRug
p4003
aVJohnson
p4004
aVBillie
p4005
aVMom
p4006
aVNixon
p4007
aVDomhoff
p4008
aVNixon
p4009
aVGeorge Meany
p4010
aVGeorge McGovern
p4011
aVNixon
p4012
aVNixon
p4013
aVNixon
p4014
aVNixon
p4015
aVNixon
p4016
aVNixon
p4017
aVNixon
p4018
aVFrank Fitzsimmons
p4019
aVJames Hodgson
p4020
aVJimmy Hoffa
p4021
aVHodgson
p4022
aVHoffa
p4023
aVHoffa
p4024
aVNixon
p4025
aVNixon
p4026
aVJane
p4027
aVBarbarella
p4028
aVJane Fonda
p4029
aVJane Fonda
p4030
aVTom Hayden
p4031
aVDan Ellenberg
p4032
aVJand Fonda
p4033
aVTom Hayden
p4034
aVPete Seeger
p4035
aVHolly Near
p4036
aVJane Fonda
p4037
aVHolly Near
p4038
aVTom Hayden
p4039
aVJon Voight
p4040
aVGeorge Smith
p4041
aVMommy
p4042
aVWanja Djanaleff
p4043
aVDaleys
p4044
aVDaley
p4045
aVMr. Bedore
p4046
aVDaley
p4047
aVDaley
p4048
aVDaley
p4049
aVDaley
p4050
aVKen Sain
p4051
aVMr. Bedore
p4052
aVLyda
p4053
aVCarter
p4054
aVCarole Whiteside
p4055
aVNoyes
p4056
aVWomen AN
p4057
aVNixon
p4058
aVGeorge McGovern
p4059
aVNixon
p4060
aVEdward Hanrahan
p4061
aVFred Hampton
p4062
aVHampton
p4063
aVMark Clark
p4064
aVHanrahan
p4065
aVDeborah Johnson
p4066
aVHampton
p4067
aVPhilip Romiti
p4068
aVHanrahan
p4069
aVHanrahan
p4070
aVKenneth Wendt
p4071
aVWendt
p4072
aVHanrahan
p4073
aVBarnabas Sears
p4074
aVHanrahan
p4075
aVStatis
p4076
aVKennedy
p4077
aVJohnson
p4078
aVDaniel Ellsberg
p4079
aVKissinger
p4080
aVKissinger
p4081
aVRamsey Clark
p4082
aVEugene Carson Blake
p4083
aVRamsey Clark
p4084
aVDan Ellsberg
p4085
aVNixon
p4086
aVLacoste
p4087
aVTrul
p4088
aVNixon
p4089
aVMozambique
p4090
aVGuine
p4091
aVGuine
p4092
aVAgostinho Neto
p4093
aVMozambique
p4094
aVGuine
p4095
aVPortu
p4096
aVMozambique
p4097
aVGuine
p4098
aVCape Verde
p4099
aVMulher
p4100
aVMozambique
p4101
aVGuine
p4102
aVRuth Neto
p4103
aVMozambique
p4104
aVAngolan Women Sharfudine
p4105
aVBob
p4106
aVEleanor
p4107
aVColleen Mona
p4108
aVElaine Jacobs
p4109
aVColleen
p4110
aVMonahan
p4111
aVElaine Jacobs
p4112
aVIll
p4113
aVLinda Shear
p4114
aVElla Szekely
p4115
aVTeena Webb
p4116
aVMinnesota
p4117
aVAlive
p4118
aVBetsy Hearn
p4119
aVAnn Smith
p4120
aVJean Gillies
p4121
aVBarb Ulman
p4122
aVEffie Mi
p4123
aVClare Patano
p4124
aVSuzie Goes
p4125
aVLouis
p4126
aVKimball
p4127
aVBryn Mawr
p4128
aVLouis
p4129
aVWeiss
p4130
aVEdward Hanrahan
p4131
aVFred Hampton
p4132
aVMark Clark
p4133
aVHanrahan
p4134
aVLu Palmer Nothing
p4135
aVDe Mau Mau
p4136
aVFred Hampton
p4137
aVMark Clark
p4138
aVEdward Hanrahan
p4139
aVHanrahan
p4140
aVCook County Sheriff
p4141
aVRichard Elrod
p4142
aVJames
p4143
aVElrod
p4144
aVHanrahan
p4145
aVHanrahan
p4146
aVMau
p4147
aVDe
p4148
aVDe
p4149
aVDe Mau Maus
p4150
aVDe
p4151
aVDe Mau Mau
p4152
aVDe Mau Mau
p4153
aVVirginia Feinman
p4154
aVThomas
p4155
aVMeskill
p4156
aVSojourner Truth
p4157
aVFredrick Zuspan
p4158
aVZuspan
p4159
aVBryn Mawr
p4160
aVRita Frederick
p4161
aVElean Johnson
p4162
aVJoyce Dandrid
p4163
aVJudeg Meier
p4164
aVJu Meier
p4165
aVDe Mau Maus
p4166
aVDe Mau Mau
p4167
aVDe Mau Mauy
p4168
aVTeena Webb
p4169
aVSue Davenport
p4170
aVJoyce
p4171
aVMolly
p4172
aVRoger
p4173
aVJohnson
p4174
aVSharfudine Khan
p4175
aVBob Van Lierop
p4176
aVMargie
p4177
aVMother Lode Sisters
p4178
aVRenee Hanover
p4179
aVGloria Steinem
p4180
aVMarilyn Monroe
p4181
aVPat Nixon
p4182
aVPat Nixon
p4183
aVSylvia Plath
p4184
aVDoris Lessing
p4185
aVSimone de Beauvoir
p4186
aVBengis
p4187
aVJohnnie Tillman
p4188
aVMCCALLS
p4189
aVGeoffrey
p4190
aVGloria Steinem
p4191
aVRosalyn Drexler
p4192
aVCynthia Ozick
p4193
aVLycra
p4194
aVJill Johnston
p4195
aVDel Martin
p4196
aVPhyllis Lyon
p4197
aVWilfred Burchett
p4198
aVAre Richard Nixon
p4199
aVHenry Kissinger
p4200
aVKissinger
p4201
aVNixon
p4202
aVXuan Thuy
p4203
aVNixon
p4204
aVXuan Thuy
p4205
aVNixon
p4206
aVNovem
p4207
aVSaigon Correspondent
p4208
aVClaude Pomonti
p4209
aVPonionti
p4210
aVNixon
p4211
aVJohnson
p4212
aVHaiphong
p4213
aVHongay
p4214
aVNixon
p4215
aVNixon
p4216
aVNixon
p4217
aVJohn Wayne
p4218
aVJohn Ford
p4219
aVLyndon Johnson
p4220
aVJane
p4221
aVFonda
p4222
aVJohn Wayne
p4223
aVHenry
p4224
aVFonda
p4225
aVFonda
p4226
aVJohn
p4227
aVWayne
p4228
aVBarbarella
p4229
aVJane Fonda
p4230
aVBarbarella
p4231
aVGeorge McGovern
p4232
aVNixon
p4233
aVJane Fonda Donald Sutherland
p4234
aVGeorge Smith
p4235
aVScott Camil
p4236
aVTom Hayden
p4237
aVHolly Near
p4238
aVJane
p4239
aVJane
p4240
aVFonda
p4241
aVJane
p4242
aVScott
p4243
aVGeorge
p4244
aVGeorge
p4245
aVJane
p4246
aVFonda
p4247
aVAnne Coe
p4248
aVMarchin
p4249
aVJames Oppenheim
p4250
aVCarole Whiteside
p4251
aVHeather Booth
p4252
aVGiddy Dyer
p4253
aVHeather Booth
p4254
aVBetsy
p4255
aVMartens COOK
p4256
aVNixon
p4257
aVKathleen McCourt
p4258
aVMarjorie Stern
p4259
aVRobin
p4260
aVChamaign
p4261
aVRenee Hanover
p4262
aVSongs Carol
p4263
aVGladys
p4264
aVGladys
p4265
aVGladys
p4266
aVHark
p4267
aVHark
p4268
aVBoughs
p4269
aVHolly Deck
p4270
aVNixon
p4271
aVJingle Bells
p4272
aVAnn
p4273
aVNixon
p4274
aVNixon
p4275
aVNixon
p4276
aVEdward Hanrahan
p4277
aVNixon
p4278
aVNixon
p4279
aVMayor Daley
p4280
aVX
aVNixon
p4281
aVNixon
p4282
aVNixon Landslide
p4283
aVExpect Nixon Landslide
p4284
aVNixon
p4285
aVNixon
p4286
aVNixon
p4287
aVNixon
p4288
aVNixon
p4289
aVNixon
p4290
aVNixon
p4291
aVNixon
p4292
aVCarnot
p4293
aVYertle
p4294
aVYertle
p4295
aVYertle
p4296
aVMack
p4297
aVMack
p4298
aVMack
p4299
aVYertle
p4300
aVYertles
p4301
aVGertude McFuzz
p4302
aVGreen Eggls
p4303
aVSarah Edelken
p4304
aVBarbara Peart
p4305
aVJenny Rohrer
p4306
aVAllyne Rosenthal
p4307
aVNixon
p4308
aVNixon
p4309
aVNixon
p4310
aVNixon
p4311
aVThieu
p4312
aVNixon
p4313
aVThieu
p4314
aVNixon
p4315
aVNixon
p4316
aVNguyen
p4317
aVNguyen Van Thieu
p4318
aVNguyen Van Thieu
p4319
aVNixon
p4320
aVNguyen Van Thieu
p4321
aVNhugen Thi Binh
p4322
aVMalcom
p4323
aVHenderson
p4324
aVLarrabee
p4325
aVButz
p4326
aVButz
p4327
aVBedore
p4328
aVKen
p4329
aVMr.
p4330
aVAlderman
p4331
aVTom Keane
p4332
aVDaley
p4333
aVAshland W.
p4334
aVHenry Kissinger
p4335
aVSanta Claus
p4336
aVMarshall Field
p4337
aVCarson
p4338
aVMadison
p4339
aVSantas
p4340
aVDaley
p4341
aVAlderman Keane
p4342
aVAlderman
p4343
aVSimpson
p4344
aVMayor Daley
p4345
aVBill
p4346
aVRockefeller
p4347
aVBarry
p4348
aVMartha Scott
p4349
aVSheila Smith
p4350
aVDiane Stevens
p4351
aVMadeline Schwenk
p4352
aVSusan Galatzer
p4353
aVAbby Gollon
p4354
aVJudy Pildes
p4355
aVWolfson
p4356
aVBizar
p4357
aVWalks
p4358
aVRobin Morgan
p4359
aVRohin
p4360
aVRobin
p4361
aVRobin
p4362
aVGon
p4363
aVMarry
p4364
aVMama
p4365
aVNaomi Weisstein
p4366
aVNaomi
p4367
aVMargaret Mead
p4368
aVJoan Hamm
p4369
aVKathie Visovatti
p4370
aVNite
p4371
aVRichard Nixon
p4372
aVNixon
p4373
aVNixon
p4374
aVHenry Kissinger
p4375
aVNixon
p4376
aVWilliam P. Rogers
p4377
aVKenneth Rush
p4378
aVPeterson
p4379
aVAsh
p4380
aVNixon
p4381
aVNixon
p4382
aVNixon
p4383
aVNixon
p4384
aVCaspar Weinberger
p4385
aVWeinberger
p4386
aVPeter J. Brennan
p4387
aVBrennan
p4388
aVNixon
p4389
aVNixon
p4390
aVJudi Lindsey
p4391
aVRon
p4392
aVRon
p4393
aVCal
p4394
aVRon
p4395
aVRon
p4396
aVStrike Rally
p4397
aVTucker
p4398
aVDaggett Harvey
p4399
aVLoren Jubl
p4400
aVJohn Brewer
p4401
aVLaura Newman
p4402
aVBarbara Bishop
p4403
aVMaxwell
p4404
aVGerry
p4405
aVLight
p4406
aVHo Chi Minh
p4407
aVNixon
p4408
aVKissinger
p4409
aVHenry Kissinger
p4410
aVKissinger
p4411
aVNixon
p4412
aVKissinger
p4413
aVNguyen Thanh Le
p4414
aVKissinger
p4415
aVXuan Thuy
p4416
aVKissinger
p4417
aVThieu
p4418
aVThieu
p4419
aVThieu
p4420
aVXuan
p4421
aVThuy
p4422
aVNixon
p4423
aVKissinger
p4424
aVJoan Baez
p4425
aVAlbania
p4426
aVNixon
p4427
aVHanoi Hilton
p4428
aVWilliam Westmoreland
p4429
aVVo Nguyen Giap
p4430
aVGiap
p4431
aVNixon
p4432
aVNixon
p4433
aVNixon
p4434
aVNixon
p4435
aVNixon
p4436
aVNixon
p4437
aVBach Mai
p4438
aVNixon
p4439
aVNixon
p4440
aVNixon
p4441
aVBelmont
p4442
aVLederle
p4443
aVLady
p4444
aVDiana Ross
p4445
aVBillie
p4446
aVBillie
p4447
aVLady
p4448
aVBillie
p4449
aVLady
p4450
aVBillie
p4451
aVTombs
p4452
aVBillie
p4453
aVBillie
p4454
aVPianoman
p4455
aVBillie
p4456
aVDiana Ross
p4457
aVDiana Ross
p4458
aVRichard Pryor
p4459
aVBillie
p4460
aVBillie
p4461
aVBillie
p4462
aVBillie
p4463
aVBillie
p4464
aVLady
p4465
aVLady
p4466
aVBillie
p4467
aVBillie
p4468
aVLouis McKay
p4469
aVBillie
p4470
aVLouis McKay
p4471
aVLady
p4472
aVBillie
p4473
aVBillie
p4474
aVLady
p4475
aVBillie
p4476
aVCarol Downer
p4477
aVColleen Wilson
p4478
aVMs. Downer
p4479
aVDeborah
p4480
aVAir
p4481
aVKnaup
p4482
aVLincoln
p4483
aVMayor Daley
p4484
aVJames Conlisk
p4485
aVCarolyn Aiello
p4486
aVElizabeth B. Johnson
p4487
aVAgustina D. Armendariz
p4488
aVJacqueline Jaramillo
p4489
aVCode
p4490
aVSarah Edelken
p4491
aVBarbara Peart
p4492
aVJenny Rohrer
p4493
aVAllyne Rosenthal
p4494
aVBarry
p4495
aVSandler
p4496
aVGeraldine Rickman
p4497
aVEdward Hanrahan
p4498
aVAlderman Leon Despres
p4499
aVAlderman Despres
p4500
aVDespres
p4501
aVHiz Honor
p4502
aVKen Sain
p4503
aVMr.
p4504
aVSain
p4505
aVMr.
p4506
aVKen Sain
p4507
aVMr. Sain
p4508
aVJennifer Rohrer
p4509
aVMr. Sain
p4510
aVMr. Hyde
p4511
aVEleanor Protas
p4512
aVJudith Lonn
p4513
aVDaley
p4514
aVDorothy
p4515
aVDorothy
p4516
aVDorothy
p4517
aVAustin
p4518
aVWarchesky
p4519
aVWater
p4520
aVRichard J. Daley
p4521
aVCaulker
p4522
aVYard Clerk
p4523
aVYard Clerk
p4524
aVEsther
p4525
aVDitza
p4526
aVWesley
p4527
aVCare
p4528
aVNixon
p4529
aVNixon
p4530
aVNixon
p4531
aVNixon
p4532
aVThieu
p4533
aVNixon
p4534
aVThieu
p4535
aVChrysler
p4536
aVSarah Edelken
p4537
aVBarbara Peart
p4538
aVJenny Rohrer
p4539
aVAllyne Rosenthal
p4540
aVMargaret Haley
p4541
aVCatherine Coggin
p4542
aVMargaret Haley
p4543
aVWilliam Hard
p4544
aVMargaret
p4545
aVHaley
p4546
aVWilliam Hale Thompson
p4547
aVMargaret Haley
p4548
aVCarl Sandburg
p4549
aVMargaret Haley
p4550
aVMargaret Haley
p4551
aVMargaret
p4552
aVBarry
p4553
aVBetsy Vazquez
p4554
aVKatherine Hepburn
p4555
aVBerg
p4556
aVGreta Garbo
p4557
aVKatie Frankie
p4558
aVCovelli
p4559
aVBarry
p4560
aVMarion
p4561
aVPat
p4562
aVNancy
p4563
aVBetsy Hearn
p4564
aVRuth Taylor Todasco
p4565
aVBetsy Vasquez
p4566
aVNixon
p4567
aVThieu
p4568
aVTruong Dinh Dzu
p4569
aVThieu
p4570
aVAdolph
p4571
aVThieu
p4572
aVNixon
p4573
aVWilliam Rogers
p4574
aVNixon
p4575
aVThieu
p4576
aVNixon
p4577
aVThieu
p4578
aVTran Thuc Linh
p4579
aVNixon
p4580
aVNguyen Van Thieu
p4581
aVBetsy Vasquez
p4582
aVChairman Mao
p4583
aVChiang Kai-Shek
p4584
aVClara Zetkin
p4585
aVZetkin
p4586
aVLeiserson
p4587
aVRose Schneiderman
p4588
aVUraguayan Tupamaros
p4589
aVMother Jones
p4590
aVElla Reeve Bloor
p4591
aVSojourner Truth
p4592
aVElizabeth Gurley Flynn
p4593
aVMother Jones
p4594
aVRoses
p4595
aVJames Oppenheim
p4596
aVRoses
p4597
aVRoses
p4598
aVRoses
p4599
aVBowen
p4600
aVNixon
p4601
aVNixon
p4602
aVNixon
p4603
aVDempsey J. Travis
p4604
aVNixon
p4605
aVNixon
p4606
aVNixon
p4607
aVNixon
p4608
aVNixon
p4609
aVBlue
p4610
aVEdison Heintz
p4611
aVLee Ellis
p4612
aVNixon
p4613
aVNixon
p4614
aVNixon
p4615
aVNixon
p4616
aVNixon
p4617
aVNixon
p4618
aVEarl Hoenes
p4619
aVDaley
p4620
aVFrance
p4621
aVMom
p4622
aVButz
p4623
aVNixon
p4624
aVDaley
p4625
aVRick Halperin
p4626
aVHalperin
p4627
aVSo Sandra Schuster
p4628
aVSchuster
p4629
aVSarah Edelken
p4630
aVBarbara Peart
p4631
aVJenny Rohrer
p4632
aVAllyne Rosenthal
p4633
aVJan
p4634
aVNixon
p4635
aVNixon
p4636
aVGertrude Stei
p4637
aVAgnes Varda
p4638
aVRed De
p4639
aVBarry
p4640
aVLine
p4641
aVWilliam Scott
p4642
aVAccor
p4643
aVBetsy Martens
p4644
aVCarole Whiteside
p4645
aVCarole
p4646
aVMichael Reese
p4647
aVSinai
p4648
aVEvan
p4649
aVToots
p4650
aVAnn
p4651
aVHarold
p4652
aVNixon
p4653
aVDennis Banks
p4654
aVClyde Bellecourt
p4655
aVCarter Camp
p4656
aVPedro Bissonette
p4657
aVTribal Chairman
p4658
aVRichard Wilson
p4659
aVWilson
p4660
aVDickey Wilson
p4661
aVLou Bean
p4662
aVWilson
p4663
aVGhost Bear
p4664
aVSevert Young Bear
p4665
aVCarter Camp
p4666
aVDick Wilson
p4667
aVCarter Camp
p4668
aVCarter Camp
p4669
aVPine Ridge
p4670
aVNixon
p4671
aVRussell Means
p4672
aVHelen Reddy
p4673
aVHelen Reddy
p4674
aVMadeline
p4675
aVSheri
p4676
aVMary
p4677
aVHelen
p4678
aVHelen
p4679
aVHelen
p4680
aVHelen
p4681
aVHelen Reddy
p4682
aVMary
p4683
aVSheri
p4684
aVMarlon Brando
p4685
aVSacheen Little
p4686
aVBrando
p4687
aVBrando
p4688
aVRaquel
p4689
aVWelch
p4690
aVClint
p4691
aVEastwood
p4692
aVBrando
p4693
aVBrando
p4694
aVBrando
p4695
aVPaul Winfield
p4696
aVCecily Tyson
p4697
aVNixon
p4698
aVCecily Tyson
p4699
aVPaul
p4700
aVHuelga Farah
p4701
aVWillie Farah
p4702
aVWillie Farah
p4703
aVFarah
p4704
aVFarah
p4705
aVFarah
p4706
aVWilma Garcia
p4707
aVWilma
p4708
aVFarah
p4709
aVFarah
p4710
aVFarah
p4711
aVFarah
p4712
aVFarah
p4713
aVFarah
p4714
aVWilma
p4715
aVFarah
p4716
aVWieboldt
p4717
aVMarshall Field
p4718
aVCarson
p4719
aVPenney
p4720
aVCliff
p4721
aVBeau Mack
p4722
aVDiase
p4723
aVBrazer
p4724
aVMarshall Field
p4725
aVFarah
p4726
aVKaye Pietrzak
p4727
aVWyatt
p4728
aVPietr
p4729
aVWyatt
p4730
aVWyatt
p4731
aVPietrzak
p4732
aVWyatt
p4733
aVMr. Thomas Hanahan
p4734
aVHanahan
p4735
aVHanrahan
p4736
aVDaley
p4737
aVHanahan
p4738
aVPietrzak
p4739
aVThi
p4740
aVSarah Edelken
p4741
aVBarbara Peart
p4742
aVDoc
p4743
aVBarry Su
p4744
aVRoses
p4745
aVWillie Shakespeare
p4746
aVWillie Shakespeare
p4747
aVWillie Shakespeare
p4748
aVStewart-Warner
p4749
aVWillie Shakespeare
p4750
aVWillie Shakespeare
p4751
aVWillie Shakespeare
p4752
aVWillie Shakespeare
p4753
aVWillie Shakespeare
p4754
aVSusan
p4755
aVBates
p4756
aVSusan
p4757
aVSusan Bates
p4758
aVSusan Bates
p4759
aVGay Rage
p4760
aVJill Johnston
p4761
aVAddison
p4762
aVMiriam Wilsog
p4763
aVBlue
p4764
aVGrant
p4765
aVMichael Reese
p4766
aVConcord
p4767
aVEmma
p4768
aVAlbert Parsons
p4769
aVAugust Spies
p4770
aVEigh
p4771
aVGoldman
p4772
aVEmma Goldman
p4773
aVEmma
p4774
aVGoldman
p4775
aVEmma Goldman
p4776
aVEmma Goldman
p4777
aVEric Oldberg
p4778
aVMayor Daley
p4779
aVCarol
p4780
aVCarol
p4781
aVCarol
p4782
aVCarol
p4783
aVCarol
p4784
aVCarol
p4785
aVCarol
p4786
aVCarol
p4787
aVCarol
p4788
aVCarol
p4789
aVIwas
p4790
aVMar
p4791
aVPark
p4792
aVNixon
p4793
aVBeth Shub
p4794
aVMarlene Weinstein
p4795
aVMary Meyer Most
p4796
aVMayor Daley
p4797
aVGigliola Pierobon
p4798
aVLucia Colella
p4799
aVGigliola
p4800
aVGigliola
p4801
aVNixon
p4802
aVAlexander Haig
p4803
aVHaig
p4804
aVHaig
p4805
aVJohn Bennett
p4806
aVBennet
p4807
aVNixon
p4808
aVBennett
p4809
aVHaig
p4810
aVMajor George Joulwean
p4811
aVLaird
p4812
aVJ. Fred Buxhardt
p4813
aVWilliam J. Barody
p4814
aVNixon
p4815
aVNixon
p4816
aVDaniel Ellsberg
p4817
aVJoseph
p4818
aVMinnie Lee
p4819
aVMinnie Lee
p4820
aVMarshall Soloway
p4821
aVQuads
p4822
aVQuaaludes
p4823
aVThieu
p4824
aVHoang Thi
p4825
aVKim Dung
p4826
aVNguyen Du
p4827
aVNguyen
p4828
aVHo Chi Minn
p4829
aVNguyen Du
p4830
aVUncle Ho
p4831
aVSarah Edelken
p4832
aVBarbara Peart
p4833
aVBlack Maria
p4834
aVRiver Forest
p4835
aVSpeaker
p4836
aVSterile
p4837
aVHilltop
p4838
aVRhogam
p4839
aVCook
p4840
aVMichael
p4841
aVAlderman Ro
p4842
aVPuchinski
p4843
aVJuliet Tucker
p4844
aVPuchinski
p4845
aVTucker
p4846
aVPuchinski
p4847
aVFelix Greene
p4848
aVGerald Tannebaum
p4849
aVMaria Isabel Barreno
p4850
aVMaria Ter
p4851
aVHorta
p4852
aVMaria Velho
p4853
aVCosta
p4854
aVNovas Carta Portuguesas
p4855
aVMarcello Caetano
p4856
aVJudith
p4857
aVGeorge
p4858
aVKoenigshofer
p4859
aVVan Nuys
p4860
aVOneida
p4861
aVPatrick
p4862
aVNixon
p4863
aVHelen
p4864
aVNixon
p4865
aVHelen Thomas
p4866
aVNixon
p4867
aVNixon
p4868
aVNixon
p4869
aVNixon
p4870
aVHelen
p4871
aVSusan Bates
p4872
aVAld
p4873
aVBates
p4874
aVDonna Sutera
p4875
aVDonna
p4876
aVDonna
p4877
aVDonna
p4878
aVDonna
p4879
aVMom
p4880
aVFreud
p4881
aVAltho
p4882
aVMom
p4883
aVMom
p4884
aVWillie
p4885
aVWillie Farah
p4886
aVMacy
p4887
aVWiebolt
p4888
aVEsther Moscow
p4889
aVFarah
p4890
aVRichard Nixon
p4891
aVLyndon Johnson
p4892
aVNixon
p4893
aVGuy
p4894
aVWeeks
p4895
aVLarry Kavanaugh
p4896
aVRobert Chenoweth
p4897
aVRobert Chenoweth
p4898
aVPru
p4899
aVSojourner Truth
p4900
aVDiana Oughton
p4901
aVSeh
p4902
aVPham Thi Quyen
p4903
aVThanh Tra
p4904
aVEarl
p4905
aVNixon
p4906
aVNixon
p4907
aVClark Jewel
p4908
aVMime Troupe
p4909
aVSan Fran Scandels
p4910
aVBertold Brecht
p4911
aVFran Scandals
p4912
aVBarry
p4913
aVStewart
p4914
aVStewart Warner
p4915
aVKraft
p4916
aVEd Smedes
p4917
aVSmedes
p4918
aVKraft
p4919
aVKraft
p4920
aVKraft
p4921
aVLee
p4922
aVNagle
p4923
aVAnne Press
p4924
aVNagle Richardson
p4925
aVRuckelshaus
p4926
aVCox
p4927
aVPope John XXIII
p4928
aVKissinger
p4929
aVHenry Kissinger
p4930
aVPacem
p4931
aVSister Mary Patrick Power
p4932
aVSister Mary Patrick
p4933
aVNixon
p4934
aVSan Clemente
p4935
aVKey Biscayne
p4936
aVPat Nixon
p4937
aVBob Toth
p4938
aVNixon
p4939
aVNixon
p4940
aVSan Clemente
p4941
aVBarbara Glenn
p4942
aVGlenn
p4943
aVRichard Nixon
p4944
aVFisher
p4945
aVBebe Rebozo
p4946
aVNixon
p4947
aVFisher
p4948
aVNixon
p4949
aVFisher
p4950
aVEhrlichman
p4951
aVHaldeman
p4952
aVNancy Whitfield
p4953
aVNancy
p4954
aVNancy
p4955
aVNancy
p4956
aVJoan Cox
p4957
aVCox
p4958
aVCox
p4959
aVCox
p4960
aVGeorge Meany
p4961
aVSusan Bates
p4962
aVSusan Bates
p4963
aVNixon
p4964
aVMaud
p4965
aVDiana
p4966
aVArchie Bunker
p4967
aVRiggs
p4968
aVBillie Jean
p4969
aVYosano Akiko
p4970
aVBernard Carey
p4971
aVDe Lee
p4972
aVDe Lee
p4973
aVDe Lee
p4974
aVDe Lee
p4975
aVDe Lee
p4976
aVTucker
p4977
aVTucker
p4978
aVTucker
p4979
aVMarine Sargeant
p4980
aVSoledad
p4981
aVSoledad
p4982
aVKate Mullaney
p4983
aVGeneral Vo Nguyen Giap
p4984
aVGeneral Henri Navarre
p4985
aVNgo Dinh Diem
p4986
aVCardinal Cooke
p4987
aVSoledad
p4988
aVJustice Byron White
p4989
aVJustice Harry Blackmun
p4990
aVJustic Blackmun
p4991
aVPRINCESS Jay Williams
p4992
aVPrince Perian
p4993
aVLabor Willard Wirtz
p4994
aVCongresswoman Shirley Chisholm
p4995
aVMargaret Haley
p4996
aVKate Mullaney
p4997
aVBetty Boop
p4998
aVColonel Frederick Brown
p4999
aa.